///////////////////////////////////////////////////////////////////////////////
//
// IAR ANSI C/C++ Compiler V7.70.1.11437/W32 for ARM      27/Jul/2018  20:43:46
// Copyright 1999-2016 IAR Systems AB.
//
//    Cpu mode     =  thumb
//    Endian       =  little
//    Source file  =  
//        D:\Freescale\信标\Beacon_C1
//        -NXP\project\Beacon_XBY\app\device\src\camera_digital.c
//    Command line =  
//        "D:\Freescale\信标\Beacon_C1
//        -NXP\project\Beacon_XBY\app\device\src\camera_digital.c" -D LPLD_K60
//        -lCN "D:\Freescale\信标\Beacon_C1
//        -NXP\project\Beacon_XBY\iar\FLASH\List" -lB
//        "D:\Freescale\信标\Beacon_C1 -NXP\project\Beacon_XBY\iar\FLASH\List"
//        -o "D:\Freescale\信标\Beacon_C1
//        -NXP\project\Beacon_XBY\iar\FLASH\Obj" --no_cse --no_unroll
//        --no_inline --no_code_motion --no_tbaa --no_clustering
//        --no_scheduling --debug --endian=little --cpu=Cortex-M4 -e --fpu=None
//        --dlib_config "D:\Program Files (x86)\IAR Systems\Embedded Workbench
//        7.5\arm\INC\c\DLib_Config_Normal.h" -I "D:\Freescale\信标\Beacon_C1
//        -NXP\project\Beacon_XBY\iar\..\app\" -I "D:\Freescale\信标\Beacon_C1
//        -NXP\project\Beacon_XBY\iar\..\..\..\lib\CPU\" -I
//        "D:\Freescale\信标\Beacon_C1
//        -NXP\project\Beacon_XBY\iar\..\..\..\lib\common\" -I
//        "D:\Freescale\信标\Beacon_C1
//        -NXP\project\Beacon_XBY\iar\..\..\..\lib\LPLD\" -I
//        "D:\Freescale\信标\Beacon_C1
//        -NXP\project\Beacon_XBY\iar\..\..\..\lib\LPLD\HW\" -I
//        "D:\Freescale\信标\Beacon_C1
//        -NXP\project\Beacon_XBY\iar\..\..\..\lib\LPLD\DEV\" -I
//        "D:\Freescale\信标\Beacon_C1
//        -NXP\project\Beacon_XBY\iar\..\..\..\lib\uCOS-II\Ports\" -I
//        "D:\Freescale\信标\Beacon_C1
//        -NXP\project\Beacon_XBY\iar\..\..\..\lib\uCOS-II\Source\" -I
//        "D:\Freescale\信标\Beacon_C1
//        -NXP\project\Beacon_XBY\iar\..\..\..\lib\FatFs\" -I
//        "D:\Freescale\信标\Beacon_C1
//        -NXP\project\Beacon_XBY\iar\..\..\..\lib\FatFs\option\" -I
//        "D:\Freescale\信标\Beacon_C1
//        -NXP\project\Beacon_XBY\iar\..\..\..\lib\USB\common\" -I
//        "D:\Freescale\信标\Beacon_C1
//        -NXP\project\Beacon_XBY\iar\..\..\..\lib\USB\driver\" -I
//        "D:\Freescale\信标\Beacon_C1
//        -NXP\project\Beacon_XBY\iar\..\..\..\lib\USB\descriptor\" -I
//        "D:\Freescale\信标\Beacon_C1
//        -NXP\project\Beacon_XBY\iar\..\..\..\lib\USB\class\" -I
//        "D:\Freescale\信标\Beacon_C1
//        -NXP\project\Beacon_XBY\iar\..\..\..\lib\LPLD\FUNC\" -I
//        "D:\Freescale\信标\Beacon_C1 -NXP\project\Beacon_XBY\app\driver\inc\"
//        -I "D:\Freescale\信标\Beacon_C1
//        -NXP\project\Beacon_XBY\app\driver\src\" -I
//        "D:\Freescale\信标\Beacon_C1
//        -NXP\project\Beacon_XBY\app\control\inc\" -I
//        "D:\Freescale\信标\Beacon_C1
//        -NXP\project\Beacon_XBY\app\control\src\" -I
//        "D:\Freescale\信标\Beacon_C1 -NXP\project\Beacon_XBY\app\debug\inc\"
//        -I "D:\Freescale\信标\Beacon_C1
//        -NXP\project\Beacon_XBY\app\debug\src\" -I
//        "D:\Freescale\信标\Beacon_C1 -NXP\project\Beacon_XBY\app\device\src\"
//        -I "D:\Freescale\信标\Beacon_C1
//        -NXP\project\Beacon_XBY\app\device\inc\" -I
//        "D:\Freescale\信标\Beacon_C1 -NXP\project\Beacon_XBY\app\signal\inc\"
//        -I "D:\Freescale\信标\Beacon_C1
//        -NXP\project\Beacon_XBY\app\signal\src\" -I
//        "D:\Freescale\信标\Beacon_C1 -NXP\project\Beacon_XBY\app\system\" -Ol
//        -I "D:\Program Files (x86)\IAR Systems\Embedded Workbench
//        7.5\arm\CMSIS\Include\" -D ARM_MATH_CM4
//    Locale       =  Chinese (Simplified)_China.936
//    List file    =  
//        D:\Freescale\信标\Beacon_C1
//        -NXP\project\Beacon_XBY\iar\FLASH\List\camera_digital.s
//
///////////////////////////////////////////////////////////////////////////////

        #define SHT_PROGBITS 0x1

        EXTERN Image_Process
        EXTERN LPLD_DMA_Init
        EXTERN LPLD_GPIO_Init
        EXTERN SoftIsr_Open
        EXTERN __aeabi_memcpy4
        EXTERN guc_camera_image_Ok
        EXTERN guc_corrected_image

        PUBLIC Camera_DMA_Init
        PUBLIC Camera_GPIO_Init
        PUBLIC Camera_H_Isr
        PUBLIC Camera_Init
        PUBLIC Camera_Process_Isr
        PUBLIC Camera_V_Isr
        PUBLIC Image_Original_Get
        PUBLIC Reserved110_IRQHandler
        PUBLIC compressImage0
        PUBLIC compressImage1
        PUBLIC extractedImage
        PUBLIC extractedImage_64x
        PUBLIC g_RowCol
        PUBLIC g_row
        PUBLIC img_extract_for_64x
        PUBLIC img_rowcol_128X64
        PUBLIC u8Useful_v

// D:\Freescale\信标\Beacon_C1 -NXP\project\Beacon_XBY\app\device\src\camera_digital.c
//    1 /*=============================================
//    2     @file         image.c
//    3     @brief        图像处理
//    4         1. 需要采集图像时，开场中断
//    5         2. 场中断来了，开行中断和初始化 DMA 传输
//    6         3. 行中断来了就设置 DMA 地址，启动 DMA 传输。如果先过滤部分行不采集，则设
//    7         置一个静态变量，每次行中断来了都自加 1，根据值来选择采集或不采集某些行。
//    8         4. 每个 PCLK 上升沿来了都触发 DMA 传输，把摄像头输出的值读取到内存数组里。
//    9         当触发 n 次（n=图像列数目）后就停止 DMA 传输。
//   10         5. 行中断次数等于一幅图像的行数，或者等待下一个场中断来临 就结束图像采集，
//   11         关闭行中断和场中断。
//   12     @programmer   XBY
//   13 =============================================*/
//   14 #include "include.h"

        SECTION `.text`:CODE:NOROOT(1)
        THUMB
// static __interwork __softfp void NVIC_EnableIRQ(IRQn_Type)
NVIC_EnableIRQ:
        MOVS     R1,#+1
        ANDS     R2,R0,#0x1F
        LSLS     R1,R1,R2
        LDR.N    R2,??DataTable8  ;; 0xe000e100
        SXTB     R0,R0            ;; SignExt  R0,R0,#+24,#+24
        LSRS     R0,R0,#+5
        STR      R1,[R2, R0, LSL #+2]
        BX       LR               ;; return

        SECTION `.text`:CODE:NOROOT(1)
        THUMB
// static __interwork __softfp void NVIC_DisableIRQ(IRQn_Type)
NVIC_DisableIRQ:
        MOVS     R1,#+1
        ANDS     R2,R0,#0x1F
        LSLS     R1,R1,R2
        LDR.N    R2,??DataTable8_1  ;; 0xe000e180
        SXTB     R0,R0            ;; SignExt  R0,R0,#+24,#+24
        LSRS     R0,R0,#+5
        STR      R1,[R2, R0, LSL #+2]
        BX       LR               ;; return
//   15 

        SECTION `.bss`:DATA:REORDER:NOROOT(0)
        DATA
//   16 uint8 u8Useful_v = 0; //标志可用帧
u8Useful_v:
        DS8 1
//   17 

        SECTION `.bss`:DATA:REORDER:NOROOT(2)
        DATA
//   18 uint8 compressImage0[CAMERA_DMA_NUM] = {0};//DMA初始未解压存储空间
compressImage0:
        DS8 9600

        SECTION `.bss`:DATA:REORDER:NOROOT(2)
        DATA
//   19 uint8 compressImage1[CAMERA_DMA_NUM] = {0};
compressImage1:
        DS8 9600
//   20 

        SECTION `.bss`:DATA:REORDER:NOROOT(2)
        DATA
//   21 uint8 extractedImage[CAMERA_DATA_NUM];
extractedImage:
        DS8 76800

        SECTION `.bss`:DATA:REORDER:NOROOT(2)
        DATA
//   22 uint8 extractedImage_64x[64 * CAMERA_W];
extractedImage_64x:
        DS8 20480
//   23 

        SECTION `.bss`:DATA:REORDER:NOROOT(2)
        DATA
//   24 static GPIO_InitTypeDef h_init;//OV行信号接口初始化
h_init:
        DS8 20

        SECTION `.bss`:DATA:REORDER:NOROOT(2)
        DATA
//   25 static GPIO_InitTypeDef v_init;//OV场信号接口初始化：
v_init:
        DS8 20

        SECTION `.bss`:DATA:REORDER:NOROOT(2)
        DATA
//   26 static GPIO_InitTypeDef pclk_init;//OV PCLK信号接口初始化：
pclk_init:
        DS8 20

        SECTION `.bss`:DATA:REORDER:NOROOT(2)
        DATA
//   27 static GPIO_InitTypeDef data_init;//OV数据口初始化
data_init:
        DS8 20
//   28 
//   29 

        SECTION `.data`:DATA:REORDER:NOROOT(2)
        DATA
//   30 uint16 g_row[IMAGE_HEIGHT] = 
g_row:
        DC16 21, 23, 26, 28, 30, 33, 35, 37, 40, 42, 45, 47, 50, 52, 55, 57, 60
        DC16 62, 65, 68, 70, 73, 76, 79, 81, 84, 87, 90, 93, 96, 99, 102, 105
        DC16 108, 111, 114, 118, 121, 124, 128, 131, 134, 138, 141, 145, 148
        DC16 152, 156, 159, 163, 167, 171, 175, 178, 182, 186, 190, 195, 199
        DC16 203, 207, 211, 216, 220
//   31 {
//   32  21,
//   33 23,
//   34 26,
//   35 28,
//   36 30,
//   37 33,
//   38 35,
//   39 37,
//   40 40,
//   41 42,
//   42 45,
//   43 47,
//   44 50,
//   45 52,
//   46 55,
//   47 57,
//   48 60,
//   49 62,
//   50 65,
//   51 68,
//   52 70,
//   53 73,
//   54 76,
//   55 79,
//   56 81,
//   57 84,
//   58 87,
//   59 90,
//   60 93,
//   61 96,
//   62 99,
//   63 102,
//   64 105,
//   65 108,
//   66 111,
//   67 114,
//   68 118,
//   69 121,
//   70 124,
//   71 128,
//   72 131,
//   73 134,
//   74 138,
//   75 141,
//   76 145,
//   77 148,
//   78 152,
//   79 156,
//   80 159,
//   81 163,
//   82 167,
//   83 171,
//   84 175,
//   85 178,
//   86 182,
//   87 186,
//   88 190,
//   89 195,
//   90 199,
//   91 203,
//   92 207,
//   93 211,
//   94 216,
//   95 220
//   96 };
//   97 
//   98 

        SECTION `.data`:DATA:REORDER:NOROOT(2)
        DATA
//   99 uint16 g_RowCol[IMAGE_HEIGHT][IMAGE_WIDTH] = 
g_RowCol:
        DC16 63, 65, 66, 68, 69, 71, 72, 74, 75, 77, 78, 80, 81, 83, 84, 86, 87
        DC16 89, 90, 92, 93, 95, 96, 98, 99, 101, 103, 104, 106, 107, 109, 110
        DC16 112, 113, 115, 116, 118, 119, 121, 122, 124, 125, 127, 128, 130
        DC16 131, 133, 134, 136, 137, 139, 141, 142, 144, 145, 147, 148, 150
        DC16 151, 153, 154, 156, 157, 159, 160, 162, 163, 165, 166, 168, 169
        DC16 171, 172, 174, 175, 177, 178, 180, 182, 183, 185, 186, 188, 189
        DC16 191, 192, 194, 195, 197, 198, 200, 201, 203, 204, 206, 207, 209
        DC16 210, 212, 213, 215, 216, 218, 220, 221, 223, 224, 226, 227, 229
        DC16 230, 232, 233, 235, 236, 238, 239, 241, 242, 244, 245, 247, 248
        DC16 250, 251, 253, 254, 256, 61, 63, 64, 66, 67, 69, 70, 72, 73, 75
        DC16 77, 78, 80, 81, 83, 84, 86, 87, 89, 90, 92, 94, 95, 97, 98, 100
        DC16 101, 103, 104, 106, 108, 109, 111, 112, 114, 115, 117, 118, 120
        DC16 121, 123, 125, 126, 128, 129, 131, 132, 134, 135, 137, 139, 140
        DC16 142, 143, 145, 146, 148, 149, 151, 153, 154, 156, 157, 159, 160
        DC16 162, 163, 165, 166, 168, 170, 171, 173, 174, 176, 177, 179, 180
        DC16 182, 184, 185, 187, 188, 190, 191, 193, 194, 196, 198, 199, 201
        DC16 202, 204, 205, 207, 208, 210, 211, 213, 215, 216, 218, 219, 221
        DC16 222, 224, 225, 227, 229, 230, 232, 233, 235, 236, 238, 239, 241
        DC16 242, 244, 246, 247, 249, 250, 252, 253, 255, 256, 258, 59, 61, 62
        DC16 64, 65, 67, 68, 70, 72, 73, 75, 76, 78, 80, 81, 83, 84, 86, 87, 89
        DC16 91, 92, 94, 95, 97, 99, 100, 102, 103, 105, 106, 108, 110, 111
        DC16 113, 114, 116, 118, 119, 121, 122, 124, 125, 127, 129, 130, 132
        DC16 133, 135, 137, 138, 140, 141, 143, 144, 146, 148, 149, 151, 152
        DC16 154, 156, 157, 159, 160, 162, 163, 165, 167, 168, 170, 171, 173
        DC16 175, 176, 178, 179, 181, 182, 184, 186, 187, 189, 190, 192, 194
        DC16 195, 197, 198, 200, 201, 203, 205, 206, 208, 209, 211, 213, 214
        DC16 216, 217, 219, 220, 222, 224, 225, 227, 228, 230, 232, 233, 235
        DC16 236, 238, 239, 241, 243, 244, 246, 247, 249, 251, 252, 254, 255
        DC16 257, 258, 260, 57, 59, 60, 62, 63, 65, 67, 68, 70, 72, 73, 75, 76
        DC16 78, 80, 81, 83, 84, 86, 88, 89, 91, 93, 94, 96, 97, 99, 101, 102
        DC16 104, 105, 107, 109, 110, 112, 113, 115, 117, 118, 120, 122, 123
        DC16 125, 126, 128, 130, 131, 133, 134, 136, 138, 139, 141, 143, 144
        DC16 146, 147, 149, 151, 152, 154, 155, 157, 159, 160, 162, 164, 165
        DC16 167, 168, 170, 172, 173, 175, 176, 178, 180, 181, 183, 185, 186
        DC16 188, 189, 191, 193, 194, 196, 197, 199, 201, 202, 204, 206, 207
        DC16 209, 210, 212, 214, 215, 217, 218, 220, 222, 223, 225, 226, 228
        DC16 230, 231, 233, 235, 236, 238, 239, 241, 243, 244, 246, 247, 249
        DC16 251, 252, 254, 256, 257, 259, 260, 262, 55, 57, 58, 60, 62, 63, 65
        DC16 67, 68, 70, 71, 73, 75, 76, 78, 80, 81, 83, 85, 86, 88, 90, 91, 93
        DC16 94, 96, 98, 99, 101, 103, 104, 106, 108, 109, 111, 113, 114, 116
        DC16 118, 119, 121, 122, 124, 126, 127, 129, 131, 132, 134, 136, 137
        DC16 139, 141, 142, 144, 146, 147, 149, 150, 152, 154, 155, 157, 159
        DC16 160, 162, 164, 165, 167, 169, 170, 172, 173, 175, 177, 178, 180
        DC16 182, 183, 185, 187, 188, 190, 192, 193, 195, 197, 198, 200, 201
        DC16 203, 205, 206, 208, 210, 211, 213, 215, 216, 218, 220, 221, 223
        DC16 225, 226, 228, 229, 231, 233, 234, 236, 238, 239, 241, 243, 244
        DC16 246, 248, 249, 251, 252, 254, 256, 257, 259, 261, 262, 264, 53, 55
        DC16 56, 58, 60, 61, 63, 65, 66, 68, 70, 71, 73, 75, 76, 78, 80, 82, 83
        DC16 85, 87, 88, 90, 92, 93, 95, 97, 98, 100, 102, 103, 105, 107, 108
        DC16 110, 112, 113, 115, 117, 118, 120, 122, 123, 125, 127, 128, 130
        DC16 132, 134, 135, 137, 139, 140, 142, 144, 145, 147, 149, 150, 152
        DC16 154, 155, 157, 159, 160, 162, 164, 165, 167, 169, 170, 172, 174
        DC16 175, 177, 179, 180, 182, 184, 185, 187, 189, 191, 192, 194, 196
        DC16 197, 199, 201, 202, 204, 206, 207, 209, 211, 212, 214, 216, 217
        DC16 219, 221, 222, 224, 226, 227, 229, 231, 232, 234, 236, 237, 239
        DC16 241, 243, 244, 246, 248, 249, 251, 253, 254, 256, 258, 259, 261
        DC16 263, 264, 266, 51, 53, 54, 56, 58, 60, 61, 63, 65, 66, 68, 70, 72
        DC16 73, 75, 77, 78, 80, 82, 83, 85, 87, 89, 90, 92, 94, 95, 97, 99
        DC16 101, 102, 104, 106, 107, 109, 111, 113, 114, 116, 118, 119, 121
        DC16 123, 124, 126, 128, 130, 131, 133, 135, 136, 138, 140, 142, 143
        DC16 145, 147, 148, 150, 152, 154, 155, 157, 159, 160, 162, 164, 165
        DC16 167, 169, 171, 172, 174, 176, 177, 179, 181, 183, 184, 186, 188
        DC16 189, 191, 193, 195, 196, 198, 200, 201, 203, 205, 206, 208, 210
        DC16 212, 213, 215, 217, 218, 220, 222, 224, 225, 227, 229, 230, 232
        DC16 234, 236, 237, 239, 241, 242, 244, 246, 247, 249, 251, 253, 254
        DC16 256, 258, 259, 261, 263, 265, 266, 268, 48, 50, 52, 53, 55, 57, 59
        DC16 60, 62, 64, 66, 67, 69, 71, 73, 74, 76, 78, 80, 81, 83, 85, 87, 88
        DC16 90, 92, 94, 95, 97, 99, 101, 102, 104, 106, 108, 109, 111, 113
        DC16 115, 116, 118, 120, 122, 124, 125, 127, 129, 131, 132, 134, 136
        DC16 138, 139, 141, 143, 145, 146, 148, 150, 152, 153, 155, 157, 159
        DC16 160, 162, 164, 166, 167, 169, 171, 173, 174, 176, 178, 180, 181
        DC16 183, 185, 187, 188, 190, 192, 194, 195, 197, 199, 201, 203, 204
        DC16 206, 208, 210, 211, 213, 215, 217, 218, 220, 222, 224, 225, 227
        DC16 229, 231, 232, 234, 236, 238, 239, 241, 243, 245, 246, 248, 250
        DC16 252, 253, 255, 257, 259, 260, 262, 264, 266, 267, 269, 271, 47, 49
        DC16 51, 52, 54, 56, 58, 59, 61, 63, 65, 66, 68, 70, 72, 74, 75, 77, 79
        DC16 81, 82, 84, 86, 88, 90, 91, 93, 95, 97, 98, 100, 102, 104, 105
        DC16 107, 109, 111, 113, 114, 116, 118, 120, 121, 123, 125, 127, 128
        DC16 130, 132, 134, 136, 137, 139, 141, 143, 144, 146, 148, 150, 152
        DC16 153, 155, 157, 159, 160, 162, 164, 166, 167, 169, 171, 173, 175
        DC16 176, 178, 180, 182, 183, 185, 187, 189, 191, 192, 194, 196, 198
        DC16 199, 201, 203, 205, 206, 208, 210, 212, 214, 215, 217, 219, 221
        DC16 222, 224, 226, 228, 229, 231, 233, 235, 237, 238, 240, 242, 244
        DC16 245, 247, 249, 251, 253, 254, 256, 258, 260, 261, 263, 265, 267
        DC16 268, 270, 272, 45, 47, 49, 50, 52, 54, 56, 58, 59, 61, 63, 65, 67
        DC16 68, 70, 72, 74, 76, 77, 79, 81, 83, 85, 86, 88, 90, 92, 94, 95, 97
        DC16 99, 101, 103, 105, 106, 108, 110, 112, 114, 115, 117, 119, 121
        DC16 123, 124, 126, 128, 130, 132, 133, 135, 137, 139, 141, 142, 144
        DC16 146, 148, 150, 151, 153, 155, 157, 159, 160, 162, 164, 166, 168
        DC16 169, 171, 173, 175, 177, 178, 180, 182, 184, 186, 187, 189, 191
        DC16 193, 195, 196, 198, 200, 202, 204, 205, 207, 209, 211, 213, 214
        DC16 216, 218, 220, 222, 224, 225, 227, 229, 231, 233, 234, 236, 238
        DC16 240, 242, 243, 245, 247, 249, 251, 252, 254, 256, 258, 260, 261
        DC16 263, 265, 267, 269, 270, 272, 274, 45, 47, 49, 50, 52, 54, 56, 58
        DC16 59, 61, 63, 65, 67, 68, 70, 72, 74, 76, 77, 79, 81, 83, 85, 86, 88
        DC16 90, 92, 94, 95, 97, 99, 101, 103, 105, 106, 108, 110, 112, 114
        DC16 115, 117, 119, 121, 123, 124, 126, 128, 130, 132, 133, 135, 137
        DC16 139, 141, 142, 144, 146, 148, 150, 151, 153, 155, 157, 159, 160
        DC16 162, 164, 166, 168, 169, 171, 173, 175, 177, 178, 180, 182, 184
        DC16 186, 187, 189, 191, 193, 195, 196, 198, 200, 202, 204, 205, 207
        DC16 209, 211, 213, 214, 216, 218, 220, 222, 224, 225, 227, 229, 231
        DC16 233, 234, 236, 238, 240, 242, 243, 245, 247, 249, 251, 252, 254
        DC16 256, 258, 260, 261, 263, 265, 267, 269, 270, 272, 274, 43, 45, 47
        DC16 49, 50, 52, 54, 56, 58, 60, 61, 63, 65, 67, 69, 71, 72, 74, 76, 78
        DC16 80, 82, 83, 85, 87, 89, 91, 93, 94, 96, 98, 100, 102, 104, 105
        DC16 107, 109, 111, 113, 115, 116, 118, 120, 122, 124, 126, 127, 129
        DC16 131, 133, 135, 137, 138, 140, 142, 144, 146, 148, 149, 151, 153
        DC16 155, 157, 159, 160, 162, 164, 166, 168, 170, 171, 173, 175, 177
        DC16 179, 181, 182, 184, 186, 188, 190, 192, 193, 195, 197, 199, 201
        DC16 203, 204, 206, 208, 210, 212, 214, 215, 217, 219, 221, 223, 225
        DC16 226, 228, 230, 232, 234, 236, 237, 239, 241, 243, 245, 247, 248
        DC16 250, 252, 254, 256, 258, 259, 261, 263, 265, 267, 269, 270, 272
        DC16 274, 276, 39, 41, 43, 45, 47, 48, 50, 52, 54, 56, 58, 60, 62, 64
        DC16 66, 67, 69, 71, 73, 75, 77, 79, 81, 83, 85, 86, 88, 90, 92, 94, 96
        DC16 98, 100, 102, 104, 105, 107, 109, 111, 113, 115, 117, 119, 121
        DC16 122, 124, 126, 128, 130, 132, 134, 136, 138, 140, 141, 143, 145
        DC16 147, 149, 151, 153, 155, 157, 159, 160, 162, 164, 166, 168, 170
        DC16 172, 174, 176, 178, 179, 181, 183, 185, 187, 189, 191, 193, 195
        DC16 197, 198, 200, 202, 204, 206, 208, 210, 212, 214, 215, 217, 219
        DC16 221, 223, 225, 227, 229, 231, 233, 234, 236, 238, 240, 242, 244
        DC16 246, 248, 250, 252, 253, 255, 257, 259, 261, 263, 265, 267, 269
        DC16 271, 272, 274, 276, 278, 280, 38, 40, 42, 44, 46, 48, 49, 51, 53
        DC16 55, 57, 59, 61, 63, 65, 67, 69, 71, 72, 74, 76, 78, 80, 82, 84, 86
        DC16 88, 90, 92, 93, 95, 97, 99, 101, 103, 105, 107, 109, 111, 113, 115
        DC16 116, 118, 120, 122, 124, 126, 128, 130, 132, 134, 136, 137, 139
        DC16 141, 143, 145, 147, 149, 151, 153, 155, 157, 159, 160, 162, 164
        DC16 166, 168, 170, 172, 174, 176, 178, 180, 182, 183, 185, 187, 189
        DC16 191, 193, 195, 197, 199, 201, 203, 204, 206, 208, 210, 212, 214
        DC16 216, 218, 220, 222, 224, 226, 227, 229, 231, 233, 235, 237, 239
        DC16 241, 243, 245, 247, 248, 250, 252, 254, 256, 258, 260, 262, 264
        DC16 266, 268, 270, 271, 273, 275, 277, 279, 281, 38, 40, 42, 44, 46
        DC16 48, 49, 51, 53, 55, 57, 59, 61, 63, 65, 67, 69, 71, 72, 74, 76, 78
        DC16 80, 82, 84, 86, 88, 90, 92, 93, 95, 97, 99, 101, 103, 105, 107
        DC16 109, 111, 113, 115, 116, 118, 120, 122, 124, 126, 128, 130, 132
        DC16 134, 136, 137, 139, 141, 143, 145, 147, 149, 151, 153, 155, 157
        DC16 159, 160, 162, 164, 166, 168, 170, 172, 174, 176, 178, 180, 182
        DC16 183, 185, 187, 189, 191, 193, 195, 197, 199, 201, 203, 204, 206
        DC16 208, 210, 212, 214, 216, 218, 220, 222, 224, 226, 227, 229, 231
        DC16 233, 235, 237, 239, 241, 243, 245, 247, 248, 250, 252, 254, 256
        DC16 258, 260, 262, 264, 266, 268, 270, 271, 273, 275, 277, 279, 281
        DC16 36, 38, 40, 42, 44, 46, 48, 50, 52, 54, 55, 57, 59, 61, 63, 65, 67
        DC16 69, 71, 73, 75, 77, 79, 81, 83, 85, 87, 89, 90, 92, 94, 96, 98
        DC16 100, 102, 104, 106, 108, 110, 112, 114, 116, 118, 120, 122, 124
        DC16 125, 127, 129, 131, 133, 135, 137, 139, 141, 143, 145, 147, 149
        DC16 151, 153, 155, 157, 159, 160, 162, 164, 166, 168, 170, 172, 174
        DC16 176, 178, 180, 182, 184, 186, 188, 190, 192, 194, 195, 197, 199
        DC16 201, 203, 205, 207, 209, 211, 213, 215, 217, 219, 221, 223, 225
        DC16 227, 229, 230, 232, 234, 236, 238, 240, 242, 244, 246, 248, 250
        DC16 252, 254, 256, 258, 260, 262, 264, 265, 267, 269, 271, 273, 275
        DC16 277, 279, 281, 283, 36, 38, 40, 42, 44, 46, 48, 50, 52, 54, 55, 57
        DC16 59, 61, 63, 65, 67, 69, 71, 73, 75, 77, 79, 81, 83, 85, 87, 89, 90
        DC16 92, 94, 96, 98, 100, 102, 104, 106, 108, 110, 112, 114, 116, 118
        DC16 120, 122, 124, 125, 127, 129, 131, 133, 135, 137, 139, 141, 143
        DC16 145, 147, 149, 151, 153, 155, 157, 159, 160, 162, 164, 166, 168
        DC16 170, 172, 174, 176, 178, 180, 182, 184, 186, 188, 190, 192, 194
        DC16 195, 197, 199, 201, 203, 205, 207, 209, 211, 213, 215, 217, 219
        DC16 221, 223, 225, 227, 229, 230, 232, 234, 236, 238, 240, 242, 244
        DC16 246, 248, 250, 252, 254, 256, 258, 260, 262, 264, 265, 267, 269
        DC16 271, 273, 275, 277, 279, 281, 283, 35, 37, 39, 41, 43, 45, 47, 49
        DC16 51, 53, 55, 57, 59, 60, 62, 64, 66, 68, 70, 72, 74, 76, 78, 80, 82
        DC16 84, 86, 88, 90, 92, 94, 96, 98, 100, 102, 104, 106, 108, 110, 111
        DC16 113, 115, 117, 119, 121, 123, 125, 127, 129, 131, 133, 135, 137
        DC16 139, 141, 143, 145, 147, 149, 151, 153, 155, 157, 159, 160, 162
        DC16 164, 166, 168, 170, 172, 174, 176, 178, 180, 182, 184, 186, 188
        DC16 190, 192, 194, 196, 198, 200, 202, 204, 206, 208, 209, 211, 213
        DC16 215, 217, 219, 221, 223, 225, 227, 229, 231, 233, 235, 237, 239
        DC16 241, 243, 245, 247, 249, 251, 253, 255, 257, 259, 260, 262, 264
        DC16 266, 268, 270, 272, 274, 276, 278, 280, 282, 284, 35, 37, 39, 41
        DC16 43, 45, 47, 49, 51, 53, 55, 57, 59, 60, 62, 64, 66, 68, 70, 72, 74
        DC16 76, 78, 80, 82, 84, 86, 88, 90, 92, 94, 96, 98, 100, 102, 104, 106
        DC16 108, 110, 111, 113, 115, 117, 119, 121, 123, 125, 127, 129, 131
        DC16 133, 135, 137, 139, 141, 143, 145, 147, 149, 151, 153, 155, 157
        DC16 159, 160, 162, 164, 166, 168, 170, 172, 174, 176, 178, 180, 182
        DC16 184, 186, 188, 190, 192, 194, 196, 198, 200, 202, 204, 206, 208
        DC16 209, 211, 213, 215, 217, 219, 221, 223, 225, 227, 229, 231, 233
        DC16 235, 237, 239, 241, 243, 245, 247, 249, 251, 253, 255, 257, 259
        DC16 260, 262, 264, 266, 268, 270, 272, 274, 276, 278, 280, 282, 284
        DC16 34, 36, 38, 40, 42, 44, 46, 48, 50, 52, 54, 56, 58, 60, 62, 64, 66
        DC16 68, 70, 72, 74, 76, 77, 79, 81, 83, 85, 87, 89, 91, 93, 95, 97, 99
        DC16 101, 103, 105, 107, 109, 111, 113, 115, 117, 119, 121, 123, 125
        DC16 127, 129, 131, 133, 135, 137, 139, 141, 143, 145, 147, 149, 151
        DC16 153, 155, 157, 159, 160, 162, 164, 166, 168, 170, 172, 174, 176
        DC16 178, 180, 182, 184, 186, 188, 190, 192, 194, 196, 198, 200, 202
        DC16 204, 206, 208, 210, 212, 214, 216, 218, 220, 222, 224, 226, 228
        DC16 230, 232, 234, 236, 238, 240, 242, 243, 245, 247, 249, 251, 253
        DC16 255, 257, 259, 261, 263, 265, 267, 269, 271, 273, 275, 277, 279
        DC16 281, 283, 285, 33, 35, 37, 39, 41, 43, 45, 47, 49, 51, 53, 55, 57
        DC16 59, 61, 63, 65, 67, 69, 71, 73, 75, 77, 79, 81, 83, 85, 87, 89, 91
        DC16 93, 95, 97, 99, 101, 103, 105, 107, 109, 111, 113, 115, 117, 119
        DC16 121, 123, 125, 127, 129, 131, 133, 135, 137, 139, 141, 143, 145
        DC16 147, 149, 151, 153, 155, 157, 159, 160, 162, 164, 166, 168, 170
        DC16 172, 174, 176, 178, 180, 182, 184, 186, 188, 190, 192, 194, 196
        DC16 198, 200, 202, 204, 206, 208, 210, 212, 214, 216, 218, 220, 222
        DC16 224, 226, 228, 230, 232, 234, 236, 238, 240, 242, 244, 246, 248
        DC16 250, 252, 254, 256, 258, 260, 262, 264, 266, 268, 270, 272, 274
        DC16 276, 278, 280, 282, 284, 286, 33, 35, 37, 39, 41, 43, 45, 47, 49
        DC16 51, 53, 55, 57, 59, 61, 63, 65, 67, 69, 71, 73, 75, 77, 79, 81, 83
        DC16 85, 87, 89, 91, 93, 95, 97, 99, 101, 103, 105, 107, 109, 111, 113
        DC16 115, 117, 119, 121, 123, 125, 127, 129, 131, 133, 135, 137, 139
        DC16 141, 143, 145, 147, 149, 151, 153, 155, 157, 159, 160, 162, 164
        DC16 166, 168, 170, 172, 174, 176, 178, 180, 182, 184, 186, 188, 190
        DC16 192, 194, 196, 198, 200, 202, 204, 206, 208, 210, 212, 214, 216
        DC16 218, 220, 222, 224, 226, 228, 230, 232, 234, 236, 238, 240, 242
        DC16 244, 246, 248, 250, 252, 254, 256, 258, 260, 262, 264, 266, 268
        DC16 270, 272, 274, 276, 278, 280, 282, 284, 286, 29, 31, 33, 35, 37
        DC16 39, 41, 43, 45, 47, 50, 52, 54, 56, 58, 60, 62, 64, 66, 68, 70, 72
        DC16 74, 76, 78, 80, 82, 84, 87, 89, 91, 93, 95, 97, 99, 101, 103, 105
        DC16 107, 109, 111, 113, 115, 117, 119, 121, 124, 126, 128, 130, 132
        DC16 134, 136, 138, 140, 142, 144, 146, 148, 150, 152, 154, 156, 158
        DC16 161, 163, 165, 167, 169, 171, 173, 175, 177, 179, 181, 183, 185
        DC16 187, 189, 191, 193, 195, 198, 200, 202, 204, 206, 208, 210, 212
        DC16 214, 216, 218, 220, 222, 224, 226, 228, 230, 232, 235, 237, 239
        DC16 241, 243, 245, 247, 249, 251, 253, 255, 257, 259, 261, 263, 265
        DC16 267, 269, 272, 274, 276, 278, 280, 282, 284, 286, 288, 290, 28, 30
        DC16 32, 34, 36, 38, 40, 42, 45, 47, 49, 51, 53, 55, 57, 59, 61, 63, 65
        DC16 67, 69, 71, 74, 76, 78, 80, 82, 84, 86, 88, 90, 92, 94, 96, 98
        DC16 100, 103, 105, 107, 109, 111, 113, 115, 117, 119, 121, 123, 125
        DC16 127, 129, 132, 134, 136, 138, 140, 142, 144, 146, 148, 150, 152
        DC16 154, 156, 158, 161, 163, 165, 167, 169, 171, 173, 175, 177, 179
        DC16 181, 183, 185, 187, 190, 192, 194, 196, 198, 200, 202, 204, 206
        DC16 208, 210, 212, 214, 216, 219, 221, 223, 225, 227, 229, 231, 233
        DC16 235, 237, 239, 241, 243, 245, 248, 250, 252, 254, 256, 258, 260
        DC16 262, 264, 266, 268, 270, 272, 274, 277, 279, 281, 283, 285, 287
        DC16 289, 291, 28, 30, 32, 34, 36, 38, 40, 42, 45, 47, 49, 51, 53, 55
        DC16 57, 59, 61, 63, 65, 67, 69, 71, 74, 76, 78, 80, 82, 84, 86, 88, 90
        DC16 92, 94, 96, 98, 100, 103, 105, 107, 109, 111, 113, 115, 117, 119
        DC16 121, 123, 125, 127, 129, 132, 134, 136, 138, 140, 142, 144, 146
        DC16 148, 150, 152, 154, 156, 158, 161, 163, 165, 167, 169, 171, 173
        DC16 175, 177, 179, 181, 183, 185, 187, 190, 192, 194, 196, 198, 200
        DC16 202, 204, 206, 208, 210, 212, 214, 216, 219, 221, 223, 225, 227
        DC16 229, 231, 233, 235, 237, 239, 241, 243, 245, 248, 250, 252, 254
        DC16 256, 258, 260, 262, 264, 266, 268, 270, 272, 274, 277, 279, 281
        DC16 283, 285, 287, 289, 291, 25, 27, 29, 31, 33, 36, 38, 40, 42, 44
        DC16 46, 48, 50, 53, 55, 57, 59, 61, 63, 65, 67, 69, 72, 74, 76, 78, 80
        DC16 82, 84, 86, 89, 91, 93, 95, 97, 99, 101, 103, 105, 108, 110, 112
        DC16 114, 116, 118, 120, 122, 125, 127, 129, 131, 133, 135, 137, 139
        DC16 141, 144, 146, 148, 150, 152, 154, 156, 158, 161, 163, 165, 167
        DC16 169, 171, 173, 175, 178, 180, 182, 184, 186, 188, 190, 192, 194
        DC16 197, 199, 201, 203, 205, 207, 209, 211, 214, 216, 218, 220, 222
        DC16 224, 226, 228, 230, 233, 235, 237, 239, 241, 243, 245, 247, 250
        DC16 252, 254, 256, 258, 260, 262, 264, 266, 269, 271, 273, 275, 277
        DC16 279, 281, 283, 286, 288, 290, 292, 294, 24, 26, 28, 30, 33, 35, 37
        DC16 39, 41, 43, 45, 47, 50, 52, 54, 56, 58, 60, 62, 65, 67, 69, 71, 73
        DC16 75, 77, 79, 82, 84, 86, 88, 90, 92, 94, 97, 99, 101, 103, 105, 107
        DC16 109, 111, 114, 116, 118, 120, 122, 124, 126, 129, 131, 133, 135
        DC16 137, 139, 141, 143, 146, 148, 150, 152, 154, 156, 158, 161, 163
        DC16 165, 167, 169, 171, 173, 176, 178, 180, 182, 184, 186, 188, 190
        DC16 193, 195, 197, 199, 201, 203, 205, 208, 210, 212, 214, 216, 218
        DC16 220, 222, 225, 227, 229, 231, 233, 235, 237, 240, 242, 244, 246
        DC16 248, 250, 252, 254, 257, 259, 261, 263, 265, 267, 269, 272, 274
        DC16 276, 278, 280, 282, 284, 286, 289, 291, 293, 295, 23, 25, 27, 29
        DC16 32, 34, 36, 38, 40, 42, 44, 47, 49, 51, 53, 55, 57, 60, 62, 64, 66
        DC16 68, 70, 72, 75, 77, 79, 81, 83, 85, 87, 90, 92, 94, 96, 98, 100
        DC16 103, 105, 107, 109, 111, 113, 115, 118, 120, 122, 124, 126, 128
        DC16 130, 133, 135, 137, 139, 141, 143, 146, 148, 150, 152, 154, 156
        DC16 158, 161, 163, 165, 167, 169, 171, 173, 176, 178, 180, 182, 184
        DC16 186, 189, 191, 193, 195, 197, 199, 201, 204, 206, 208, 210, 212
        DC16 214, 216, 219, 221, 223, 225, 227, 229, 232, 234, 236, 238, 240
        DC16 242, 244, 247, 249, 251, 253, 255, 257, 259, 262, 264, 266, 268
        DC16 270, 272, 275, 277, 279, 281, 283, 285, 287, 290, 292, 294, 296
        DC16 23, 25, 27, 29, 32, 34, 36, 38, 40, 42, 44, 47, 49, 51, 53, 55, 57
        DC16 60, 62, 64, 66, 68, 70, 72, 75, 77, 79, 81, 83, 85, 87, 90, 92, 94
        DC16 96, 98, 100, 103, 105, 107, 109, 111, 113, 115, 118, 120, 122, 124
        DC16 126, 128, 130, 133, 135, 137, 139, 141, 143, 146, 148, 150, 152
        DC16 154, 156, 158, 161, 163, 165, 167, 169, 171, 173, 176, 178, 180
        DC16 182, 184, 186, 189, 191, 193, 195, 197, 199, 201, 204, 206, 208
        DC16 210, 212, 214, 216, 219, 221, 223, 225, 227, 229, 232, 234, 236
        DC16 238, 240, 242, 244, 247, 249, 251, 253, 255, 257, 259, 262, 264
        DC16 266, 268, 270, 272, 275, 277, 279, 281, 283, 285, 287, 290, 292
        DC16 294, 296, 20, 22, 24, 27, 29, 31, 33, 35, 38, 40, 42, 44, 46, 49
        DC16 51, 53, 55, 57, 60, 62, 64, 66, 68, 71, 73, 75, 77, 79, 82, 84, 86
        DC16 88, 90, 92, 95, 97, 99, 101, 103, 106, 108, 110, 112, 114, 117
        DC16 119, 121, 123, 125, 128, 130, 132, 134, 136, 139, 141, 143, 145
        DC16 147, 150, 152, 154, 156, 158, 161, 163, 165, 167, 169, 172, 174
        DC16 176, 178, 180, 183, 185, 187, 189, 191, 194, 196, 198, 200, 202
        DC16 205, 207, 209, 211, 213, 216, 218, 220, 222, 224, 227, 229, 231
        DC16 233, 235, 237, 240, 242, 244, 246, 248, 251, 253, 255, 257, 259
        DC16 262, 264, 266, 268, 270, 273, 275, 277, 279, 281, 284, 286, 288
        DC16 290, 292, 295, 297, 299, 20, 22, 24, 27, 29, 31, 33, 35, 38, 40
        DC16 42, 44, 46, 49, 51, 53, 55, 57, 60, 62, 64, 66, 68, 71, 73, 75, 77
        DC16 79, 82, 84, 86, 88, 90, 92, 95, 97, 99, 101, 103, 106, 108, 110
        DC16 112, 114, 117, 119, 121, 123, 125, 128, 130, 132, 134, 136, 139
        DC16 141, 143, 145, 147, 150, 152, 154, 156, 158, 161, 163, 165, 167
        DC16 169, 172, 174, 176, 178, 180, 183, 185, 187, 189, 191, 194, 196
        DC16 198, 200, 202, 205, 207, 209, 211, 213, 216, 218, 220, 222, 224
        DC16 227, 229, 231, 233, 235, 237, 240, 242, 244, 246, 248, 251, 253
        DC16 255, 257, 259, 262, 264, 266, 268, 270, 273, 275, 277, 279, 281
        DC16 284, 286, 288, 290, 292, 295, 297, 299, 19, 21, 23, 26, 28, 30, 32
        DC16 34, 37, 39, 41, 43, 46, 48, 50, 52, 54, 57, 59, 61, 63, 65, 68, 70
        DC16 72, 74, 77, 79, 81, 83, 85, 88, 90, 92, 94, 96, 99, 101, 103, 105
        DC16 108, 110, 112, 114, 116, 119, 121, 123, 125, 127, 130, 132, 134
        DC16 136, 138, 141, 143, 145, 147, 150, 152, 154, 156, 158, 161, 163
        DC16 165, 167, 169, 172, 174, 176, 178, 181, 183, 185, 187, 189, 192
        DC16 194, 196, 198, 200, 203, 205, 207, 209, 211, 214, 216, 218, 220
        DC16 223, 225, 227, 229, 231, 234, 236, 238, 240, 242, 245, 247, 249
        DC16 251, 254, 256, 258, 260, 262, 265, 267, 269, 271, 273, 276, 278
        DC16 280, 282, 285, 287, 289, 291, 293, 296, 298, 300, 19, 21, 23, 26
        DC16 28, 30, 32, 34, 37, 39, 41, 43, 46, 48, 50, 52, 54, 57, 59, 61, 63
        DC16 65, 68, 70, 72, 74, 77, 79, 81, 83, 85, 88, 90, 92, 94, 96, 99
        DC16 101, 103, 105, 108, 110, 112, 114, 116, 119, 121, 123, 125, 127
        DC16 130, 132, 134, 136, 138, 141, 143, 145, 147, 150, 152, 154, 156
        DC16 158, 161, 163, 165, 167, 169, 172, 174, 176, 178, 181, 183, 185
        DC16 187, 189, 192, 194, 196, 198, 200, 203, 205, 207, 209, 211, 214
        DC16 216, 218, 220, 223, 225, 227, 229, 231, 234, 236, 238, 240, 242
        DC16 245, 247, 249, 251, 254, 256, 258, 260, 262, 265, 267, 269, 271
        DC16 273, 276, 278, 280, 282, 285, 287, 289, 291, 293, 296, 298, 300
        DC16 18, 20, 22, 25, 27, 29, 31, 34, 36, 38, 40, 43, 45, 47, 49, 51, 54
        DC16 56, 58, 60, 63, 65, 67, 69, 71, 74, 76, 78, 80, 83, 85, 87, 89, 92
        DC16 94, 96, 98, 100, 103, 105, 107, 109, 112, 114, 116, 118, 121, 123
        DC16 125, 127, 129, 132, 134, 136, 138, 141, 143, 145, 147, 149, 152
        DC16 154, 156, 158, 161, 163, 165, 167, 170, 172, 174, 176, 178, 181
        DC16 183, 185, 187, 190, 192, 194, 196, 198, 201, 203, 205, 207, 210
        DC16 212, 214, 216, 219, 221, 223, 225, 227, 230, 232, 234, 236, 239
        DC16 241, 243, 245, 248, 250, 252, 254, 256, 259, 261, 263, 265, 268
        DC16 270, 272, 274, 276, 279, 281, 283, 285, 288, 290, 292, 294, 297
        DC16 299, 301, 16, 18, 21, 23, 25, 27, 30, 32, 34, 36, 39, 41, 43, 45
        DC16 48, 50, 52, 54, 57, 59, 61, 63, 66, 68, 70, 72, 75, 77, 79, 82, 84
        DC16 86, 88, 91, 93, 95, 97, 100, 102, 104, 106, 109, 111, 113, 115
        DC16 118, 120, 122, 124, 127, 129, 131, 134, 136, 138, 140, 143, 145
        DC16 147, 149, 152, 154, 156, 158, 161, 163, 165, 167, 170, 172, 174
        DC16 176, 179, 181, 183, 185, 188, 190, 192, 195, 197, 199, 201, 204
        DC16 206, 208, 210, 213, 215, 217, 219, 222, 224, 226, 228, 231, 233
        DC16 235, 237, 240, 242, 244, 247, 249, 251, 253, 256, 258, 260, 262
        DC16 265, 267, 269, 271, 274, 276, 278, 280, 283, 285, 287, 289, 292
        DC16 294, 296, 298, 301, 303, 16, 18, 21, 23, 25, 27, 30, 32, 34, 36
        DC16 39, 41, 43, 45, 48, 50, 52, 54, 57, 59, 61, 63, 66, 68, 70, 72, 75
        DC16 77, 79, 82, 84, 86, 88, 91, 93, 95, 97, 100, 102, 104, 106, 109
        DC16 111, 113, 115, 118, 120, 122, 124, 127, 129, 131, 134, 136, 138
        DC16 140, 143, 145, 147, 149, 152, 154, 156, 158, 161, 163, 165, 167
        DC16 170, 172, 174, 176, 179, 181, 183, 185, 188, 190, 192, 195, 197
        DC16 199, 201, 204, 206, 208, 210, 213, 215, 217, 219, 222, 224, 226
        DC16 228, 231, 233, 235, 237, 240, 242, 244, 247, 249, 251, 253, 256
        DC16 258, 260, 262, 265, 267, 269, 271, 274, 276, 278, 280, 283, 285
        DC16 287, 289, 292, 294, 296, 298, 301, 303, 15, 17, 20, 22, 24, 26, 29
        DC16 31, 33, 35, 38, 40, 42, 45, 47, 49, 51, 54, 56, 58, 61, 63, 65, 67
        DC16 70, 72, 74, 76, 79, 81, 83, 86, 88, 90, 92, 95, 97, 99, 101, 104
        DC16 106, 108, 111, 113, 115, 117, 120, 122, 124, 127, 129, 131, 133
        DC16 136, 138, 140, 142, 145, 147, 149, 152, 154, 156, 158, 161, 163
        DC16 165, 167, 170, 172, 174, 177, 179, 181, 183, 186, 188, 190, 192
        DC16 195, 197, 199, 202, 204, 206, 208, 211, 213, 215, 218, 220, 222
        DC16 224, 227, 229, 231, 233, 236, 238, 240, 243, 245, 247, 249, 252
        DC16 254, 256, 258, 261, 263, 265, 268, 270, 272, 274, 277, 279, 281
        DC16 284, 286, 288, 290, 293, 295, 297, 299, 302, 304, 15, 17, 20, 22
        DC16 24, 26, 29, 31, 33, 35, 38, 40, 42, 45, 47, 49, 51, 54, 56, 58, 61
        DC16 63, 65, 67, 70, 72, 74, 76, 79, 81, 83, 86, 88, 90, 92, 95, 97, 99
        DC16 101, 104, 106, 108, 111, 113, 115, 117, 120, 122, 124, 127, 129
        DC16 131, 133, 136, 138, 140, 142, 145, 147, 149, 152, 154, 156, 158
        DC16 161, 163, 165, 167, 170, 172, 174, 177, 179, 181, 183, 186, 188
        DC16 190, 192, 195, 197, 199, 202, 204, 206, 208, 211, 213, 215, 218
        DC16 220, 222, 224, 227, 229, 231, 233, 236, 238, 240, 243, 245, 247
        DC16 249, 252, 254, 256, 258, 261, 263, 265, 268, 270, 272, 274, 277
        DC16 279, 281, 284, 286, 288, 290, 293, 295, 297, 299, 302, 304, 15, 17
        DC16 20, 22, 24, 26, 29, 31, 33, 35, 38, 40, 42, 45, 47, 49, 51, 54, 56
        DC16 58, 61, 63, 65, 67, 70, 72, 74, 76, 79, 81, 83, 86, 88, 90, 92, 95
        DC16 97, 99, 101, 104, 106, 108, 111, 113, 115, 117, 120, 122, 124, 127
        DC16 129, 131, 133, 136, 138, 140, 142, 145, 147, 149, 152, 154, 156
        DC16 158, 161, 163, 165, 167, 170, 172, 174, 177, 179, 181, 183, 186
        DC16 188, 190, 192, 195, 197, 199, 202, 204, 206, 208, 211, 213, 215
        DC16 218, 220, 222, 224, 227, 229, 231, 233, 236, 238, 240, 243, 245
        DC16 247, 249, 252, 254, 256, 258, 261, 263, 265, 268, 270, 272, 274
        DC16 277, 279, 281, 284, 286, 288, 290, 293, 295, 297, 299, 302, 304
        DC16 14, 16, 19, 21, 23, 25, 28, 30, 32, 35, 37, 39, 41, 44, 46, 48, 51
        DC16 53, 55, 58, 60, 62, 64, 67, 69, 71, 74, 76, 78, 80, 83, 85, 87, 90
        DC16 92, 94, 96, 99, 101, 103, 106, 108, 110, 113, 115, 117, 119, 122
        DC16 124, 126, 129, 131, 133, 135, 138, 140, 142, 145, 147, 149, 151
        DC16 154, 156, 158, 161, 163, 165, 168, 170, 172, 174, 177, 179, 181
        DC16 184, 186, 188, 190, 193, 195, 197, 200, 202, 204, 206, 209, 211
        DC16 213, 216, 218, 220, 223, 225, 227, 229, 232, 234, 236, 239, 241
        DC16 243, 245, 248, 250, 252, 255, 257, 259, 261, 264, 266, 268, 271
        DC16 273, 275, 278, 280, 282, 284, 287, 289, 291, 294, 296, 298, 300
        DC16 303, 305, 13, 15, 18, 20, 22, 25, 27, 29, 31, 34, 36, 38, 41, 43
        DC16 45, 48, 50, 52, 55, 57, 59, 61, 64, 66, 68, 71, 73, 75, 78, 80, 82
        DC16 85, 87, 89, 91, 94, 96, 98, 101, 103, 105, 108, 110, 112, 115, 117
        DC16 119, 121, 124, 126, 128, 131, 133, 135, 138, 140, 142, 145, 147
        DC16 149, 151, 154, 156, 158, 161, 163, 165, 168, 170, 172, 174, 177
        DC16 179, 181, 184, 186, 188, 191, 193, 195, 198, 200, 202, 204, 207
        DC16 209, 211, 214, 216, 218, 221, 223, 225, 228, 230, 232, 234, 237
        DC16 239, 241, 244, 246, 248, 251, 253, 255, 258, 260, 262, 264, 267
        DC16 269, 271, 274, 276, 278, 281, 283, 285, 288, 290, 292, 294, 297
        DC16 299, 301, 304, 306, 13, 15, 18, 20, 22, 25, 27, 29, 31, 34, 36, 38
        DC16 41, 43, 45, 48, 50, 52, 55, 57, 59, 61, 64, 66, 68, 71, 73, 75, 78
        DC16 80, 82, 85, 87, 89, 91, 94, 96, 98, 101, 103, 105, 108, 110, 112
        DC16 115, 117, 119, 121, 124, 126, 128, 131, 133, 135, 138, 140, 142
        DC16 145, 147, 149, 151, 154, 156, 158, 161, 163, 165, 168, 170, 172
        DC16 174, 177, 179, 181, 184, 186, 188, 191, 193, 195, 198, 200, 202
        DC16 204, 207, 209, 211, 214, 216, 218, 221, 223, 225, 228, 230, 232
        DC16 234, 237, 239, 241, 244, 246, 248, 251, 253, 255, 258, 260, 262
        DC16 264, 267, 269, 271, 274, 276, 278, 281, 283, 285, 288, 290, 292
        DC16 294, 297, 299, 301, 304, 306, 12, 14, 17, 19, 21, 24, 26, 28, 31
        DC16 33, 35, 38, 40, 42, 45, 47, 49, 51, 54, 56, 58, 61, 63, 65, 68, 70
        DC16 72, 75, 77, 79, 82, 84, 86, 89, 91, 93, 96, 98, 100, 103, 105, 107
        DC16 110, 112, 114, 117, 119, 121, 123, 126, 128, 130, 133, 135, 137
        DC16 140, 142, 144, 147, 149, 151, 154, 156, 158, 161, 163, 165, 168
        DC16 170, 172, 175, 177, 179, 182, 184, 186, 189, 191, 193, 196, 198
        DC16 200, 202, 205, 207, 209, 212, 214, 216, 219, 221, 223, 226, 228
        DC16 230, 233, 235, 237, 240, 242, 244, 247, 249, 251, 254, 256, 258
        DC16 261, 263, 265, 268, 270, 272, 274, 277, 279, 281, 284, 286, 288
        DC16 291, 293, 295, 298, 300, 302, 305, 307, 10, 12, 15, 17, 19, 22, 24
        DC16 26, 29, 31, 34, 36, 38, 41, 43, 45, 48, 50, 52, 55, 57, 59, 62, 64
        DC16 67, 69, 71, 74, 76, 78, 81, 83, 85, 88, 90, 92, 95, 97, 99, 102
        DC16 104, 107, 109, 111, 114, 116, 118, 121, 123, 125, 128, 130, 132
        DC16 135, 137, 139, 142, 144, 147, 149, 151, 154, 156, 158, 161, 163
        DC16 165, 168, 170, 172, 175, 177, 180, 182, 184, 187, 189, 191, 194
        DC16 196, 198, 201, 203, 205, 208, 210, 212, 215, 217, 220, 222, 224
        DC16 227, 229, 231, 234, 236, 238, 241, 243, 245, 248, 250, 252, 255
        DC16 257, 260, 262, 264, 267, 269, 271, 274, 276, 278, 281, 283, 285
        DC16 288, 290, 293, 295, 297, 300, 302, 304, 307, 309, 9, 11, 14, 16
        DC16 18, 21, 23, 26, 28, 30, 33, 35, 37, 40, 42, 45, 47, 49, 52, 54, 56
        DC16 59, 61, 64, 66, 68, 71, 73, 75, 78, 80, 82, 85, 87, 90, 92, 94, 97
        DC16 99, 101, 104, 106, 109, 111, 113, 116, 118, 120, 123, 125, 128
        DC16 130, 132, 135, 137, 139, 142, 144, 146, 149, 151, 154, 156, 158
        DC16 161, 163, 165, 168, 170, 173, 175, 177, 180, 182, 184, 187, 189
        DC16 191, 194, 196, 199, 201, 203, 206, 208, 210, 213, 215, 218, 220
        DC16 222, 225, 227, 229, 232, 234, 237, 239, 241, 244, 246, 248, 251
        DC16 253, 255, 258, 260, 263, 265, 267, 270, 272, 274, 277, 279, 282
        DC16 284, 286, 289, 291, 293, 296, 298, 301, 303, 305, 308, 310, 9, 11
        DC16 14, 16, 18, 21, 23, 26, 28, 30, 33, 35, 37, 40, 42, 45, 47, 49, 52
        DC16 54, 56, 59, 61, 64, 66, 68, 71, 73, 75, 78, 80, 82, 85, 87, 90, 92
        DC16 94, 97, 99, 101, 104, 106, 109, 111, 113, 116, 118, 120, 123, 125
        DC16 128, 130, 132, 135, 137, 139, 142, 144, 146, 149, 151, 154, 156
        DC16 158, 161, 163, 165, 168, 170, 173, 175, 177, 180, 182, 184, 187
        DC16 189, 191, 194, 196, 199, 201, 203, 206, 208, 210, 213, 215, 218
        DC16 220, 222, 225, 227, 229, 232, 234, 237, 239, 241, 244, 246, 248
        DC16 251, 253, 255, 258, 260, 263, 265, 267, 270, 272, 274, 277, 279
        DC16 282, 284, 286, 289, 291, 293, 296, 298, 301, 303, 305, 308, 310, 8
        DC16 10, 13, 15, 18, 20, 22, 25, 27, 29, 32, 34, 37, 39, 41, 44, 46, 49
        DC16 51, 53, 56, 58, 60, 63, 65, 68, 70, 72, 75, 77, 80, 82, 84, 87, 89
        DC16 92, 94, 96, 99, 101, 103, 106, 108, 111, 113, 115, 118, 120, 123
        DC16 125, 127, 130, 132, 134, 137, 139, 142, 144, 146, 149, 151, 154
        DC16 156, 158, 161, 163, 165, 168, 170, 173, 175, 177, 180, 182, 185
        DC16 187, 189, 192, 194, 196, 199, 201, 204, 206, 208, 211, 213, 216
        DC16 218, 220, 223, 225, 227, 230, 232, 235, 237, 239, 242, 244, 247
        DC16 249, 251, 254, 256, 259, 261, 263, 266, 268, 270, 273, 275, 278
        DC16 280, 282, 285, 287, 290, 292, 294, 297, 299, 301, 304, 306, 309
        DC16 311, 8, 10, 13, 15, 18, 20, 22, 25, 27, 29, 32, 34, 37, 39, 41, 44
        DC16 46, 49, 51, 53, 56, 58, 60, 63, 65, 68, 70, 72, 75, 77, 80, 82, 84
        DC16 87, 89, 92, 94, 96, 99, 101, 103, 106, 108, 111, 113, 115, 118
        DC16 120, 123, 125, 127, 130, 132, 134, 137, 139, 142, 144, 146, 149
        DC16 151, 154, 156, 158, 161, 163, 165, 168, 170, 173, 175, 177, 180
        DC16 182, 185, 187, 189, 192, 194, 196, 199, 201, 204, 206, 208, 211
        DC16 213, 216, 218, 220, 223, 225, 227, 230, 232, 235, 237, 239, 242
        DC16 244, 247, 249, 251, 254, 256, 259, 261, 263, 266, 268, 270, 273
        DC16 275, 278, 280, 282, 285, 287, 290, 292, 294, 297, 299, 301, 304
        DC16 306, 309, 311, 8, 10, 13, 15, 18, 20, 22, 25, 27, 29, 32, 34, 37
        DC16 39, 41, 44, 46, 49, 51, 53, 56, 58, 60, 63, 65, 68, 70, 72, 75, 77
        DC16 80, 82, 84, 87, 89, 92, 94, 96, 99, 101, 103, 106, 108, 111, 113
        DC16 115, 118, 120, 123, 125, 127, 130, 132, 134, 137, 139, 142, 144
        DC16 146, 149, 151, 154, 156, 158, 161, 163, 165, 168, 170, 173, 175
        DC16 177, 180, 182, 185, 187, 189, 192, 194, 196, 199, 201, 204, 206
        DC16 208, 211, 213, 216, 218, 220, 223, 225, 227, 230, 232, 235, 237
        DC16 239, 242, 244, 247, 249, 251, 254, 256, 259, 261, 263, 266, 268
        DC16 270, 273, 275, 278, 280, 282, 285, 287, 290, 292, 294, 297, 299
        DC16 301, 304, 306, 309, 311, 8, 10, 13, 15, 18, 20, 22, 25, 27, 29, 32
        DC16 34, 37, 39, 41, 44, 46, 49, 51, 53, 56, 58, 60, 63, 65, 68, 70, 72
        DC16 75, 77, 80, 82, 84, 87, 89, 92, 94, 96, 99, 101, 103, 106, 108
        DC16 111, 113, 115, 118, 120, 123, 125, 127, 130, 132, 134, 137, 139
        DC16 142, 144, 146, 149, 151, 154, 156, 158, 161, 163, 165, 168, 170
        DC16 173, 175, 177, 180, 182, 185, 187, 189, 192, 194, 196, 199, 201
        DC16 204, 206, 208, 211, 213, 216, 218, 220, 223, 225, 227, 230, 232
        DC16 235, 237, 239, 242, 244, 247, 249, 251, 254, 256, 259, 261, 263
        DC16 266, 268, 270, 273, 275, 278, 280, 282, 285, 287, 290, 292, 294
        DC16 297, 299, 301, 304, 306, 309, 311, 7, 9, 12, 14, 17, 19, 21, 24
        DC16 26, 29, 31, 33, 36, 38, 41, 43, 45, 48, 50, 53, 55, 57, 60, 62, 65
        DC16 67, 69, 72, 74, 77, 79, 81, 84, 86, 89, 91, 93, 96, 98, 101, 103
        DC16 105, 108, 110, 113, 115, 117, 120, 122, 125, 127, 129, 132, 134
        DC16 137, 139, 141, 144, 146, 149, 151, 153, 156, 158, 161, 163, 166
        DC16 168, 170, 173, 175, 178, 180, 182, 185, 187, 190, 192, 194, 197
        DC16 199, 202, 204, 206, 209, 211, 214, 216, 218, 221, 223, 226, 228
        DC16 230, 233, 235, 238, 240, 242, 245, 247, 250, 252, 254, 257, 259
        DC16 262, 264, 266, 269, 271, 274, 276, 278, 281, 283, 286, 288, 290
        DC16 293, 295, 298, 300, 302, 305, 307, 310, 312, 6, 8, 11, 13, 16, 18
        DC16 21, 23, 25, 28, 30, 33, 35, 37, 40, 42, 45, 47, 50, 52, 54, 57, 59
        DC16 62, 64, 66, 69, 71, 74, 76, 79, 81, 83, 86, 88, 91, 93, 95, 98
        DC16 100, 103, 105, 108, 110, 112, 115, 117, 120, 122, 124, 127, 129
        DC16 132, 134, 137, 139, 141, 144, 146, 149, 151, 153, 156, 158, 161
        DC16 163, 166, 168, 170, 173, 175, 178, 180, 182, 185, 187, 190, 192
        DC16 195, 197, 199, 202, 204, 207, 209, 211, 214, 216, 219, 221, 224
        DC16 226, 228, 231, 233, 236, 238, 240, 243, 245, 248, 250, 253, 255
        DC16 257, 260, 262, 265, 267, 269, 272, 274, 277, 279, 282, 284, 286
        DC16 289, 291, 294, 296, 298, 301, 303, 306, 308, 311, 313, 4, 6, 9, 11
        DC16 14, 16, 19, 21, 24, 26, 28, 31, 33, 36, 38, 41, 43, 46, 48, 51, 53
        DC16 55, 58, 60, 63, 65, 68, 70, 73, 75, 77, 80, 82, 85, 87, 90, 92, 95
        DC16 97, 100, 102, 104, 107, 109, 112, 114, 117, 119, 122, 124, 126
        DC16 129, 131, 134, 136, 139, 141, 144, 146, 148, 151, 153, 156, 158
        DC16 161, 163, 166, 168, 171, 173, 175, 178, 180, 183, 185, 188, 190
        DC16 193, 195, 197, 200, 202, 205, 207, 210, 212, 215, 217, 219, 222
        DC16 224, 227, 229, 232, 234, 237, 239, 242, 244, 246, 249, 251, 254
        DC16 256, 259, 261, 264, 266, 268, 271, 273, 276, 278, 281, 283, 286
        DC16 288, 291, 293, 295, 298, 300, 303, 305, 308, 310, 313, 315, 4, 6
        DC16 9, 11, 14, 16, 19, 21, 24, 26, 28, 31, 33, 36, 38, 41, 43, 46, 48
        DC16 51, 53, 55, 58, 60, 63, 65, 68, 70, 73, 75, 77, 80, 82, 85, 87, 90
        DC16 92, 95, 97, 100, 102, 104, 107, 109, 112, 114, 117, 119, 122, 124
        DC16 126, 129, 131, 134, 136, 139, 141, 144, 146, 148, 151, 153, 156
        DC16 158, 161, 163, 166, 168, 171, 173, 175, 178, 180, 183, 185, 188
        DC16 190, 193, 195, 197, 200, 202, 205, 207, 210, 212, 215, 217, 219
        DC16 222, 224, 227, 229, 232, 234, 237, 239, 242, 244, 246, 249, 251
        DC16 254, 256, 259, 261, 264, 266, 268, 271, 273, 276, 278, 281, 283
        DC16 286, 288, 291, 293, 295, 298, 300, 303, 305, 308, 310, 313, 315, 3
        DC16 5, 8, 10, 13, 15, 18, 20, 23, 25, 28, 30, 33, 35, 38, 40, 42, 45
        DC16 47, 50, 52, 55, 57, 60, 62, 65, 67, 70, 72, 74, 77, 79, 82, 84, 87
        DC16 89, 92, 94, 97, 99, 102, 104, 107, 109, 111, 114, 116, 119, 121
        DC16 124, 126, 129, 131, 134, 136, 139, 141, 143, 146, 148, 151, 153
        DC16 156, 158, 161, 163, 166, 168, 171, 173, 176, 178, 180, 183, 185
        DC16 188, 190, 193, 195, 198, 200, 203, 205, 208, 210, 212, 215, 217
        DC16 220, 222, 225, 227, 230, 232, 235, 237, 240, 242, 245, 247, 249
        DC16 252, 254, 257, 259, 262, 264, 267, 269, 272, 274, 277, 279, 281
        DC16 284, 286, 289, 291, 294, 296, 299, 301, 304, 306, 309, 311, 314
        DC16 316, 3, 5, 8, 10, 13, 15, 18, 20, 23, 25, 28, 30, 33, 35, 38, 40
        DC16 42, 45, 47, 50, 52, 55, 57, 60, 62, 65, 67, 70, 72, 74, 77, 79, 82
        DC16 84, 87, 89, 92, 94, 97, 99, 102, 104, 107, 109, 111, 114, 116, 119
        DC16 121, 124, 126, 129, 131, 134, 136, 139, 141, 143, 146, 148, 151
        DC16 153, 156, 158, 161, 163, 166, 168, 171, 173, 176, 178, 180, 183
        DC16 185, 188, 190, 193, 195, 198, 200, 203, 205, 208, 210, 212, 215
        DC16 217, 220, 222, 225, 227, 230, 232, 235, 237, 240, 242, 245, 247
        DC16 249, 252, 254, 257, 259, 262, 264, 267, 269, 272, 274, 277, 279
        DC16 281, 284, 286, 289, 291, 294, 296, 299, 301, 304, 306, 309, 311
        DC16 314, 316, 3, 5, 8, 10, 13, 15, 18, 20, 23, 25, 28, 30, 33, 35, 38
        DC16 40, 42, 45, 47, 50, 52, 55, 57, 60, 62, 65, 67, 70, 72, 74, 77, 79
        DC16 82, 84, 87, 89, 92, 94, 97, 99, 102, 104, 107, 109, 111, 114, 116
        DC16 119, 121, 124, 126, 129, 131, 134, 136, 139, 141, 143, 146, 148
        DC16 151, 153, 156, 158, 161, 163, 166, 168, 171, 173, 176, 178, 180
        DC16 183, 185, 188, 190, 193, 195, 198, 200, 203, 205, 208, 210, 212
        DC16 215, 217, 220, 222, 225, 227, 230, 232, 235, 237, 240, 242, 245
        DC16 247, 249, 252, 254, 257, 259, 262, 264, 267, 269, 272, 274, 277
        DC16 279, 281, 284, 286, 289, 291, 294, 296, 299, 301, 304, 306, 309
        DC16 311, 314, 316, 3, 5, 8, 10, 13, 15, 18, 20, 23, 25, 28, 30, 33, 35
        DC16 38, 40, 42, 45, 47, 50, 52, 55, 57, 60, 62, 65, 67, 70, 72, 74, 77
        DC16 79, 82, 84, 87, 89, 92, 94, 97, 99, 102, 104, 107, 109, 111, 114
        DC16 116, 119, 121, 124, 126, 129, 131, 134, 136, 139, 141, 143, 146
        DC16 148, 151, 153, 156, 158, 161, 163, 166, 168, 171, 173, 176, 178
        DC16 180, 183, 185, 188, 190, 193, 195, 198, 200, 203, 205, 208, 210
        DC16 212, 215, 217, 220, 222, 225, 227, 230, 232, 235, 237, 240, 242
        DC16 245, 247, 249, 252, 254, 257, 259, 262, 264, 267, 269, 272, 274
        DC16 277, 279, 281, 284, 286, 289, 291, 294, 296, 299, 301, 304, 306
        DC16 309, 311, 314, 316, 2, 4, 7, 9, 12, 14, 17, 19, 22, 24, 27, 29, 32
        DC16 34, 37, 39, 42, 44, 47, 49, 52, 54, 57, 59, 62, 64, 66, 69, 71, 74
        DC16 76, 79, 81, 84, 86, 89, 91, 94, 96, 99, 101, 104, 106, 109, 111
        DC16 114, 116, 119, 121, 124, 126, 128, 131, 133, 136, 138, 141, 143
        DC16 146, 148, 151, 153, 156, 158, 161, 163, 166, 168, 171, 173, 176
        DC16 178, 181, 183, 186, 188, 191, 193, 195, 198, 200, 203, 205, 208
        DC16 210, 213, 215, 218, 220, 223, 225, 228, 230, 233, 235, 238, 240
        DC16 243, 245, 248, 250, 253, 255, 257, 260, 262, 265, 267, 270, 272
        DC16 275, 277, 280, 282, 285, 287, 290, 292, 295, 297, 300, 302, 305
        DC16 307, 310, 312, 315, 317, 1, 3, 6, 8, 11, 13, 16, 18, 21, 23, 26
        DC16 28, 31, 33, 36, 38, 41, 43, 46, 48, 51, 53, 56, 58, 61, 63, 66, 68
        DC16 71, 73, 76, 78, 81, 83, 86, 88, 91, 93, 96, 98, 101, 103, 106, 108
        DC16 111, 113, 116, 118, 121, 123, 126, 128, 131, 133, 136, 138, 141
        DC16 143, 146, 148, 151, 153, 156, 158, 161, 163, 166, 168, 171, 173
        DC16 176, 178, 181, 183, 186, 188, 191, 193, 196, 198, 201, 203, 206
        DC16 208, 211, 213, 216, 218, 221, 223, 226, 228, 231, 233, 236, 238
        DC16 241, 243, 246, 248, 251, 253, 256, 258, 261, 263, 266, 268, 271
        DC16 273, 276, 278, 281, 283, 286, 288, 291, 293, 296, 298, 301, 303
        DC16 306, 308, 311, 313, 316, 318, 1, 3, 6, 8, 11, 13, 16, 18, 21, 23
        DC16 26, 28, 31, 33, 36, 38, 41, 43, 46, 48, 51, 53, 56, 58, 61, 63, 66
        DC16 68, 71, 73, 76, 78, 81, 83, 86, 88, 91, 93, 96, 98, 101, 103, 106
        DC16 108, 111, 113, 116, 118, 121, 123, 126, 128, 131, 133, 136, 138
        DC16 141, 143, 146, 148, 151, 153, 156, 158, 161, 163, 166, 168, 171
        DC16 173, 176, 178, 181, 183, 186, 188, 191, 193, 196, 198, 201, 203
        DC16 206, 208, 211, 213, 216, 218, 221, 223, 226, 228, 231, 233, 236
        DC16 238, 241, 243, 246, 248, 251, 253, 256, 258, 261, 263, 266, 268
        DC16 271, 273, 276, 278, 281, 283, 286, 288, 291, 293, 296, 298, 301
        DC16 303, 306, 308, 311, 313, 316, 318, 0, 3, 5, 8, 10, 13, 15, 18, 20
        DC16 23, 25, 28, 30, 33, 35, 38, 40, 43, 45, 48, 50, 53, 55, 58, 60, 63
        DC16 65, 68, 70, 73, 75, 78, 80, 83, 85, 88, 90, 93, 95, 98, 100, 103
        DC16 105, 108, 111, 113, 116, 118, 121, 123, 126, 128, 131, 133, 136
        DC16 138, 141, 143, 146, 148, 151, 153, 156, 158, 161, 163, 166, 168
        DC16 171, 173, 176, 178, 181, 183, 186, 188, 191, 193, 196, 198, 201
        DC16 203, 206, 208, 211, 214, 216, 219, 221, 224, 226, 229, 231, 234
        DC16 236, 239, 241, 244, 246, 249, 251, 254, 256, 259, 261, 264, 266
        DC16 269, 271, 274, 276, 279, 281, 284, 286, 289, 291, 294, 296, 299
        DC16 301, 304, 306, 309, 311, 314, 316, 319, 0, 3, 5, 8, 10, 13, 15, 18
        DC16 20, 23, 25, 28, 30, 33, 35, 38, 40, 43, 45, 48, 50, 53, 55, 58, 60
        DC16 63, 65, 68, 70, 73, 75, 78, 80, 83, 85, 88, 90, 93, 95, 98, 100
        DC16 103, 105, 108, 111, 113, 116, 118, 121, 123, 126, 128, 131, 133
        DC16 136, 138, 141, 143, 146, 148, 151, 153, 156, 158, 161, 163, 166
        DC16 168, 171, 173, 176, 178, 181, 183, 186, 188, 191, 193, 196, 198
        DC16 201, 203, 206, 208, 211, 214, 216, 219, 221, 224, 226, 229, 231
        DC16 234, 236, 239, 241, 244, 246, 249, 251, 254, 256, 259, 261, 264
        DC16 266, 269, 271, 274, 276, 279, 281, 284, 286, 289, 291, 294, 296
        DC16 299, 301, 304, 306, 309, 311, 314, 316, 319, 0, 3, 5, 8, 10, 13
        DC16 15, 18, 20, 23, 25, 28, 30, 33, 35, 38, 40, 43, 45, 48, 50, 53, 55
        DC16 58, 60, 63, 65, 68, 70, 73, 75, 78, 80, 83, 85, 88, 90, 93, 95, 98
        DC16 100, 103, 105, 108, 111, 113, 116, 118, 121, 123, 126, 128, 131
        DC16 133, 136, 138, 141, 143, 146, 148, 151, 153, 156, 158, 161, 163
        DC16 166, 168, 171, 173, 176, 178, 181, 183, 186, 188, 191, 193, 196
        DC16 198, 201, 203, 206, 208, 211, 214, 216, 219, 221, 224, 226, 229
        DC16 231, 234, 236, 239, 241, 244, 246, 249, 251, 254, 256, 259, 261
        DC16 264, 266, 269, 271, 274, 276, 279, 281, 284, 286, 289, 291, 294
        DC16 296, 299, 301, 304, 306, 309, 311, 314, 316, 319
//  100 {
//  101 
//  102 63, 65, 66, 68, 69, 71, 72, 74, 75, 77, 
//  103 78, 80, 81, 83, 84, 86, 87, 89, 90, 92, 
//  104 93, 95, 96, 98, 99, 101, 103, 104, 106, 107, 
//  105 109, 110, 112, 113, 115, 116, 118, 119, 121, 122, 
//  106 124, 125, 127, 128, 130, 131, 133, 134, 136, 137, 
//  107 139, 141, 142, 144, 145, 147, 148, 150, 151, 153, 
//  108 154, 156, 157, 159, 160, 162, 163, 165, 166, 168, 
//  109 169, 171, 172, 174, 175, 177, 178, 180, 182, 183, 
//  110 185, 186, 188, 189, 191, 192, 194, 195, 197, 198, 
//  111 200, 201, 203, 204, 206, 207, 209, 210, 212, 213, 
//  112 215, 216, 218, 220, 221, 223, 224, 226, 227, 229, 
//  113 230, 232, 233, 235, 236, 238, 239, 241, 242, 244, 
//  114 245, 247, 248, 250, 251, 253, 254, 256, 
//  115 61, 63, 64, 66, 67, 69, 70, 72, 73, 75, 
//  116 77, 78, 80, 81, 83, 84, 86, 87, 89, 90, 
//  117 92, 94, 95, 97, 98, 100, 101, 103, 104, 106, 
//  118 108, 109, 111, 112, 114, 115, 117, 118, 120, 121, 
//  119 123, 125, 126, 128, 129, 131, 132, 134, 135, 137, 
//  120 139, 140, 142, 143, 145, 146, 148, 149, 151, 153, 
//  121 154, 156, 157, 159, 160, 162, 163, 165, 166, 168, 
//  122 170, 171, 173, 174, 176, 177, 179, 180, 182, 184, 
//  123 185, 187, 188, 190, 191, 193, 194, 196, 198, 199, 
//  124 201, 202, 204, 205, 207, 208, 210, 211, 213, 215, 
//  125 216, 218, 219, 221, 222, 224, 225, 227, 229, 230, 
//  126 232, 233, 235, 236, 238, 239, 241, 242, 244, 246, 
//  127 247, 249, 250, 252, 253, 255, 256, 258, 
//  128 59, 61, 62, 64, 65, 67, 68, 70, 72, 73, 
//  129 75, 76, 78, 80, 81, 83, 84, 86, 87, 89, 
//  130 91, 92, 94, 95, 97, 99, 100, 102, 103, 105, 
//  131 106, 108, 110, 111, 113, 114, 116, 118, 119, 121, 
//  132 122, 124, 125, 127, 129, 130, 132, 133, 135, 137, 
//  133 138, 140, 141, 143, 144, 146, 148, 149, 151, 152, 
//  134 154, 156, 157, 159, 160, 162, 163, 165, 167, 168, 
//  135 170, 171, 173, 175, 176, 178, 179, 181, 182, 184, 
//  136 186, 187, 189, 190, 192, 194, 195, 197, 198, 200, 
//  137 201, 203, 205, 206, 208, 209, 211, 213, 214, 216, 
//  138 217, 219, 220, 222, 224, 225, 227, 228, 230, 232, 
//  139 233, 235, 236, 238, 239, 241, 243, 244, 246, 247, 
//  140 249, 251, 252, 254, 255, 257, 258, 260, 
//  141 57, 59, 60, 62, 63, 65, 67, 68, 70, 72, 
//  142 73, 75, 76, 78, 80, 81, 83, 84, 86, 88, 
//  143 89, 91, 93, 94, 96, 97, 99, 101, 102, 104, 
//  144 105, 107, 109, 110, 112, 113, 115, 117, 118, 120, 
//  145 122, 123, 125, 126, 128, 130, 131, 133, 134, 136, 
//  146 138, 139, 141, 143, 144, 146, 147, 149, 151, 152, 
//  147 154, 155, 157, 159, 160, 162, 164, 165, 167, 168, 
//  148 170, 172, 173, 175, 176, 178, 180, 181, 183, 185, 
//  149 186, 188, 189, 191, 193, 194, 196, 197, 199, 201, 
//  150 202, 204, 206, 207, 209, 210, 212, 214, 215, 217, 
//  151 218, 220, 222, 223, 225, 226, 228, 230, 231, 233, 
//  152 235, 236, 238, 239, 241, 243, 244, 246, 247, 249, 
//  153 251, 252, 254, 256, 257, 259, 260, 262, 
//  154 55, 57, 58, 60, 62, 63, 65, 67, 68, 70, 
//  155 71, 73, 75, 76, 78, 80, 81, 83, 85, 86, 
//  156 88, 90, 91, 93, 94, 96, 98, 99, 101, 103, 
//  157 104, 106, 108, 109, 111, 113, 114, 116, 118, 119, 
//  158 121, 122, 124, 126, 127, 129, 131, 132, 134, 136, 
//  159 137, 139, 141, 142, 144, 146, 147, 149, 150, 152, 
//  160 154, 155, 157, 159, 160, 162, 164, 165, 167, 169, 
//  161 170, 172, 173, 175, 177, 178, 180, 182, 183, 185, 
//  162 187, 188, 190, 192, 193, 195, 197, 198, 200, 201, 
//  163 203, 205, 206, 208, 210, 211, 213, 215, 216, 218, 
//  164 220, 221, 223, 225, 226, 228, 229, 231, 233, 234, 
//  165 236, 238, 239, 241, 243, 244, 246, 248, 249, 251, 
//  166 252, 254, 256, 257, 259, 261, 262, 264, 
//  167 53, 55, 56, 58, 60, 61, 63, 65, 66, 68, 
//  168 70, 71, 73, 75, 76, 78, 80, 82, 83, 85, 
//  169 87, 88, 90, 92, 93, 95, 97, 98, 100, 102, 
//  170 103, 105, 107, 108, 110, 112, 113, 115, 117, 118, 
//  171 120, 122, 123, 125, 127, 128, 130, 132, 134, 135, 
//  172 137, 139, 140, 142, 144, 145, 147, 149, 150, 152, 
//  173 154, 155, 157, 159, 160, 162, 164, 165, 167, 169, 
//  174 170, 172, 174, 175, 177, 179, 180, 182, 184, 185, 
//  175 187, 189, 191, 192, 194, 196, 197, 199, 201, 202, 
//  176 204, 206, 207, 209, 211, 212, 214, 216, 217, 219, 
//  177 221, 222, 224, 226, 227, 229, 231, 232, 234, 236, 
//  178 237, 239, 241, 243, 244, 246, 248, 249, 251, 253, 
//  179 254, 256, 258, 259, 261, 263, 264, 266, 
//  180 51, 53, 54, 56, 58, 60, 61, 63, 65, 66, 
//  181 68, 70, 72, 73, 75, 77, 78, 80, 82, 83, 
//  182 85, 87, 89, 90, 92, 94, 95, 97, 99, 101, 
//  183 102, 104, 106, 107, 109, 111, 113, 114, 116, 118, 
//  184 119, 121, 123, 124, 126, 128, 130, 131, 133, 135, 
//  185 136, 138, 140, 142, 143, 145, 147, 148, 150, 152, 
//  186 154, 155, 157, 159, 160, 162, 164, 165, 167, 169, 
//  187 171, 172, 174, 176, 177, 179, 181, 183, 184, 186, 
//  188 188, 189, 191, 193, 195, 196, 198, 200, 201, 203, 
//  189 205, 206, 208, 210, 212, 213, 215, 217, 218, 220, 
//  190 222, 224, 225, 227, 229, 230, 232, 234, 236, 237, 
//  191 239, 241, 242, 244, 246, 247, 249, 251, 253, 254, 
//  192 256, 258, 259, 261, 263, 265, 266, 268, 
//  193 48, 50, 52, 53, 55, 57, 59, 60, 62, 64, 
//  194 66, 67, 69, 71, 73, 74, 76, 78, 80, 81, 
//  195 83, 85, 87, 88, 90, 92, 94, 95, 97, 99, 
//  196 101, 102, 104, 106, 108, 109, 111, 113, 115, 116, 
//  197 118, 120, 122, 124, 125, 127, 129, 131, 132, 134, 
//  198 136, 138, 139, 141, 143, 145, 146, 148, 150, 152, 
//  199 153, 155, 157, 159, 160, 162, 164, 166, 167, 169, 
//  200 171, 173, 174, 176, 178, 180, 181, 183, 185, 187, 
//  201 188, 190, 192, 194, 195, 197, 199, 201, 203, 204, 
//  202 206, 208, 210, 211, 213, 215, 217, 218, 220, 222, 
//  203 224, 225, 227, 229, 231, 232, 234, 236, 238, 239, 
//  204 241, 243, 245, 246, 248, 250, 252, 253, 255, 257, 
//  205 259, 260, 262, 264, 266, 267, 269, 271, 
//  206 47, 49, 51, 52, 54, 56, 58, 59, 61, 63, 
//  207 65, 66, 68, 70, 72, 74, 75, 77, 79, 81, 
//  208 82, 84, 86, 88, 90, 91, 93, 95, 97, 98, 
//  209 100, 102, 104, 105, 107, 109, 111, 113, 114, 116, 
//  210 118, 120, 121, 123, 125, 127, 128, 130, 132, 134, 
//  211 136, 137, 139, 141, 143, 144, 146, 148, 150, 152, 
//  212 153, 155, 157, 159, 160, 162, 164, 166, 167, 169, 
//  213 171, 173, 175, 176, 178, 180, 182, 183, 185, 187, 
//  214 189, 191, 192, 194, 196, 198, 199, 201, 203, 205, 
//  215 206, 208, 210, 212, 214, 215, 217, 219, 221, 222, 
//  216 224, 226, 228, 229, 231, 233, 235, 237, 238, 240, 
//  217 242, 244, 245, 247, 249, 251, 253, 254, 256, 258, 
//  218 260, 261, 263, 265, 267, 268, 270, 272, 
//  219 45, 47, 49, 50, 52, 54, 56, 58, 59, 61, 
//  220 63, 65, 67, 68, 70, 72, 74, 76, 77, 79, 
//  221 81, 83, 85, 86, 88, 90, 92, 94, 95, 97, 
//  222 99, 101, 103, 105, 106, 108, 110, 112, 114, 115, 
//  223 117, 119, 121, 123, 124, 126, 128, 130, 132, 133, 
//  224 135, 137, 139, 141, 142, 144, 146, 148, 150, 151, 
//  225 153, 155, 157, 159, 160, 162, 164, 166, 168, 169, 
//  226 171, 173, 175, 177, 178, 180, 182, 184, 186, 187, 
//  227 189, 191, 193, 195, 196, 198, 200, 202, 204, 205, 
//  228 207, 209, 211, 213, 214, 216, 218, 220, 222, 224, 
//  229 225, 227, 229, 231, 233, 234, 236, 238, 240, 242, 
//  230 243, 245, 247, 249, 251, 252, 254, 256, 258, 260, 
//  231 261, 263, 265, 267, 269, 270, 272, 274, 
//  232 45, 47, 49, 50, 52, 54, 56, 58, 59, 61, 
//  233 63, 65, 67, 68, 70, 72, 74, 76, 77, 79, 
//  234 81, 83, 85, 86, 88, 90, 92, 94, 95, 97, 
//  235 99, 101, 103, 105, 106, 108, 110, 112, 114, 115, 
//  236 117, 119, 121, 123, 124, 126, 128, 130, 132, 133, 
//  237 135, 137, 139, 141, 142, 144, 146, 148, 150, 151, 
//  238 153, 155, 157, 159, 160, 162, 164, 166, 168, 169, 
//  239 171, 173, 175, 177, 178, 180, 182, 184, 186, 187, 
//  240 189, 191, 193, 195, 196, 198, 200, 202, 204, 205, 
//  241 207, 209, 211, 213, 214, 216, 218, 220, 222, 224, 
//  242 225, 227, 229, 231, 233, 234, 236, 238, 240, 242, 
//  243 243, 245, 247, 249, 251, 252, 254, 256, 258, 260, 
//  244 261, 263, 265, 267, 269, 270, 272, 274, 
//  245 43, 45, 47, 49, 50, 52, 54, 56, 58, 60, 
//  246 61, 63, 65, 67, 69, 71, 72, 74, 76, 78, 
//  247 80, 82, 83, 85, 87, 89, 91, 93, 94, 96, 
//  248 98, 100, 102, 104, 105, 107, 109, 111, 113, 115, 
//  249 116, 118, 120, 122, 124, 126, 127, 129, 131, 133, 
//  250 135, 137, 138, 140, 142, 144, 146, 148, 149, 151, 
//  251 153, 155, 157, 159, 160, 162, 164, 166, 168, 170, 
//  252 171, 173, 175, 177, 179, 181, 182, 184, 186, 188, 
//  253 190, 192, 193, 195, 197, 199, 201, 203, 204, 206, 
//  254 208, 210, 212, 214, 215, 217, 219, 221, 223, 225, 
//  255 226, 228, 230, 232, 234, 236, 237, 239, 241, 243, 
//  256 245, 247, 248, 250, 252, 254, 256, 258, 259, 261, 
//  257 263, 265, 267, 269, 270, 272, 274, 276, 
//  258 39, 41, 43, 45, 47, 48, 50, 52, 54, 56, 
//  259 58, 60, 62, 64, 66, 67, 69, 71, 73, 75, 
//  260 77, 79, 81, 83, 85, 86, 88, 90, 92, 94, 
//  261 96, 98, 100, 102, 104, 105, 107, 109, 111, 113, 
//  262 115, 117, 119, 121, 122, 124, 126, 128, 130, 132, 
//  263 134, 136, 138, 140, 141, 143, 145, 147, 149, 151, 
//  264 153, 155, 157, 159, 160, 162, 164, 166, 168, 170, 
//  265 172, 174, 176, 178, 179, 181, 183, 185, 187, 189, 
//  266 191, 193, 195, 197, 198, 200, 202, 204, 206, 208, 
//  267 210, 212, 214, 215, 217, 219, 221, 223, 225, 227, 
//  268 229, 231, 233, 234, 236, 238, 240, 242, 244, 246, 
//  269 248, 250, 252, 253, 255, 257, 259, 261, 263, 265, 
//  270 267, 269, 271, 272, 274, 276, 278, 280, 
//  271 38, 40, 42, 44, 46, 48, 49, 51, 53, 55, 
//  272 57, 59, 61, 63, 65, 67, 69, 71, 72, 74, 
//  273 76, 78, 80, 82, 84, 86, 88, 90, 92, 93, 
//  274 95, 97, 99, 101, 103, 105, 107, 109, 111, 113, 
//  275 115, 116, 118, 120, 122, 124, 126, 128, 130, 132, 
//  276 134, 136, 137, 139, 141, 143, 145, 147, 149, 151, 
//  277 153, 155, 157, 159, 160, 162, 164, 166, 168, 170, 
//  278 172, 174, 176, 178, 180, 182, 183, 185, 187, 189, 
//  279 191, 193, 195, 197, 199, 201, 203, 204, 206, 208, 
//  280 210, 212, 214, 216, 218, 220, 222, 224, 226, 227, 
//  281 229, 231, 233, 235, 237, 239, 241, 243, 245, 247, 
//  282 248, 250, 252, 254, 256, 258, 260, 262, 264, 266, 
//  283 268, 270, 271, 273, 275, 277, 279, 281, 
//  284 38, 40, 42, 44, 46, 48, 49, 51, 53, 55, 
//  285 57, 59, 61, 63, 65, 67, 69, 71, 72, 74, 
//  286 76, 78, 80, 82, 84, 86, 88, 90, 92, 93, 
//  287 95, 97, 99, 101, 103, 105, 107, 109, 111, 113, 
//  288 115, 116, 118, 120, 122, 124, 126, 128, 130, 132, 
//  289 134, 136, 137, 139, 141, 143, 145, 147, 149, 151, 
//  290 153, 155, 157, 159, 160, 162, 164, 166, 168, 170, 
//  291 172, 174, 176, 178, 180, 182, 183, 185, 187, 189, 
//  292 191, 193, 195, 197, 199, 201, 203, 204, 206, 208, 
//  293 210, 212, 214, 216, 218, 220, 222, 224, 226, 227, 
//  294 229, 231, 233, 235, 237, 239, 241, 243, 245, 247, 
//  295 248, 250, 252, 254, 256, 258, 260, 262, 264, 266, 
//  296 268, 270, 271, 273, 275, 277, 279, 281, 
//  297 36, 38, 40, 42, 44, 46, 48, 50, 52, 54, 
//  298 55, 57, 59, 61, 63, 65, 67, 69, 71, 73, 
//  299 75, 77, 79, 81, 83, 85, 87, 89, 90, 92, 
//  300 94, 96, 98, 100, 102, 104, 106, 108, 110, 112, 
//  301 114, 116, 118, 120, 122, 124, 125, 127, 129, 131, 
//  302 133, 135, 137, 139, 141, 143, 145, 147, 149, 151, 
//  303 153, 155, 157, 159, 160, 162, 164, 166, 168, 170, 
//  304 172, 174, 176, 178, 180, 182, 184, 186, 188, 190, 
//  305 192, 194, 195, 197, 199, 201, 203, 205, 207, 209, 
//  306 211, 213, 215, 217, 219, 221, 223, 225, 227, 229, 
//  307 230, 232, 234, 236, 238, 240, 242, 244, 246, 248, 
//  308 250, 252, 254, 256, 258, 260, 262, 264, 265, 267, 
//  309 269, 271, 273, 275, 277, 279, 281, 283, 
//  310 36, 38, 40, 42, 44, 46, 48, 50, 52, 54, 
//  311 55, 57, 59, 61, 63, 65, 67, 69, 71, 73, 
//  312 75, 77, 79, 81, 83, 85, 87, 89, 90, 92, 
//  313 94, 96, 98, 100, 102, 104, 106, 108, 110, 112, 
//  314 114, 116, 118, 120, 122, 124, 125, 127, 129, 131, 
//  315 133, 135, 137, 139, 141, 143, 145, 147, 149, 151, 
//  316 153, 155, 157, 159, 160, 162, 164, 166, 168, 170, 
//  317 172, 174, 176, 178, 180, 182, 184, 186, 188, 190, 
//  318 192, 194, 195, 197, 199, 201, 203, 205, 207, 209, 
//  319 211, 213, 215, 217, 219, 221, 223, 225, 227, 229, 
//  320 230, 232, 234, 236, 238, 240, 242, 244, 246, 248, 
//  321 250, 252, 254, 256, 258, 260, 262, 264, 265, 267, 
//  322 269, 271, 273, 275, 277, 279, 281, 283, 
//  323 35, 37, 39, 41, 43, 45, 47, 49, 51, 53, 
//  324 55, 57, 59, 60, 62, 64, 66, 68, 70, 72, 
//  325 74, 76, 78, 80, 82, 84, 86, 88, 90, 92, 
//  326 94, 96, 98, 100, 102, 104, 106, 108, 110, 111, 
//  327 113, 115, 117, 119, 121, 123, 125, 127, 129, 131, 
//  328 133, 135, 137, 139, 141, 143, 145, 147, 149, 151, 
//  329 153, 155, 157, 159, 160, 162, 164, 166, 168, 170, 
//  330 172, 174, 176, 178, 180, 182, 184, 186, 188, 190, 
//  331 192, 194, 196, 198, 200, 202, 204, 206, 208, 209, 
//  332 211, 213, 215, 217, 219, 221, 223, 225, 227, 229, 
//  333 231, 233, 235, 237, 239, 241, 243, 245, 247, 249, 
//  334 251, 253, 255, 257, 259, 260, 262, 264, 266, 268, 
//  335 270, 272, 274, 276, 278, 280, 282, 284, 
//  336 35, 37, 39, 41, 43, 45, 47, 49, 51, 53, 
//  337 55, 57, 59, 60, 62, 64, 66, 68, 70, 72, 
//  338 74, 76, 78, 80, 82, 84, 86, 88, 90, 92, 
//  339 94, 96, 98, 100, 102, 104, 106, 108, 110, 111, 
//  340 113, 115, 117, 119, 121, 123, 125, 127, 129, 131, 
//  341 133, 135, 137, 139, 141, 143, 145, 147, 149, 151, 
//  342 153, 155, 157, 159, 160, 162, 164, 166, 168, 170, 
//  343 172, 174, 176, 178, 180, 182, 184, 186, 188, 190, 
//  344 192, 194, 196, 198, 200, 202, 204, 206, 208, 209, 
//  345 211, 213, 215, 217, 219, 221, 223, 225, 227, 229, 
//  346 231, 233, 235, 237, 239, 241, 243, 245, 247, 249, 
//  347 251, 253, 255, 257, 259, 260, 262, 264, 266, 268, 
//  348 270, 272, 274, 276, 278, 280, 282, 284, 
//  349 34, 36, 38, 40, 42, 44, 46, 48, 50, 52, 
//  350 54, 56, 58, 60, 62, 64, 66, 68, 70, 72, 
//  351 74, 76, 77, 79, 81, 83, 85, 87, 89, 91, 
//  352 93, 95, 97, 99, 101, 103, 105, 107, 109, 111, 
//  353 113, 115, 117, 119, 121, 123, 125, 127, 129, 131, 
//  354 133, 135, 137, 139, 141, 143, 145, 147, 149, 151, 
//  355 153, 155, 157, 159, 160, 162, 164, 166, 168, 170, 
//  356 172, 174, 176, 178, 180, 182, 184, 186, 188, 190, 
//  357 192, 194, 196, 198, 200, 202, 204, 206, 208, 210, 
//  358 212, 214, 216, 218, 220, 222, 224, 226, 228, 230, 
//  359 232, 234, 236, 238, 240, 242, 243, 245, 247, 249, 
//  360 251, 253, 255, 257, 259, 261, 263, 265, 267, 269, 
//  361 271, 273, 275, 277, 279, 281, 283, 285, 
//  362 33, 35, 37, 39, 41, 43, 45, 47, 49, 51, 
//  363 53, 55, 57, 59, 61, 63, 65, 67, 69, 71, 
//  364 73, 75, 77, 79, 81, 83, 85, 87, 89, 91, 
//  365 93, 95, 97, 99, 101, 103, 105, 107, 109, 111, 
//  366 113, 115, 117, 119, 121, 123, 125, 127, 129, 131, 
//  367 133, 135, 137, 139, 141, 143, 145, 147, 149, 151, 
//  368 153, 155, 157, 159, 160, 162, 164, 166, 168, 170, 
//  369 172, 174, 176, 178, 180, 182, 184, 186, 188, 190, 
//  370 192, 194, 196, 198, 200, 202, 204, 206, 208, 210, 
//  371 212, 214, 216, 218, 220, 222, 224, 226, 228, 230, 
//  372 232, 234, 236, 238, 240, 242, 244, 246, 248, 250, 
//  373 252, 254, 256, 258, 260, 262, 264, 266, 268, 270, 
//  374 272, 274, 276, 278, 280, 282, 284, 286, 
//  375 33, 35, 37, 39, 41, 43, 45, 47, 49, 51, 
//  376 53, 55, 57, 59, 61, 63, 65, 67, 69, 71, 
//  377 73, 75, 77, 79, 81, 83, 85, 87, 89, 91, 
//  378 93, 95, 97, 99, 101, 103, 105, 107, 109, 111, 
//  379 113, 115, 117, 119, 121, 123, 125, 127, 129, 131, 
//  380 133, 135, 137, 139, 141, 143, 145, 147, 149, 151, 
//  381 153, 155, 157, 159, 160, 162, 164, 166, 168, 170, 
//  382 172, 174, 176, 178, 180, 182, 184, 186, 188, 190, 
//  383 192, 194, 196, 198, 200, 202, 204, 206, 208, 210, 
//  384 212, 214, 216, 218, 220, 222, 224, 226, 228, 230, 
//  385 232, 234, 236, 238, 240, 242, 244, 246, 248, 250, 
//  386 252, 254, 256, 258, 260, 262, 264, 266, 268, 270, 
//  387 272, 274, 276, 278, 280, 282, 284, 286, 
//  388 29, 31, 33, 35, 37, 39, 41, 43, 45, 47, 
//  389 50, 52, 54, 56, 58, 60, 62, 64, 66, 68, 
//  390 70, 72, 74, 76, 78, 80, 82, 84, 87, 89, 
//  391 91, 93, 95, 97, 99, 101, 103, 105, 107, 109, 
//  392 111, 113, 115, 117, 119, 121, 124, 126, 128, 130, 
//  393 132, 134, 136, 138, 140, 142, 144, 146, 148, 150, 
//  394 152, 154, 156, 158, 161, 163, 165, 167, 169, 171, 
//  395 173, 175, 177, 179, 181, 183, 185, 187, 189, 191, 
//  396 193, 195, 198, 200, 202, 204, 206, 208, 210, 212, 
//  397 214, 216, 218, 220, 222, 224, 226, 228, 230, 232, 
//  398 235, 237, 239, 241, 243, 245, 247, 249, 251, 253, 
//  399 255, 257, 259, 261, 263, 265, 267, 269, 272, 274, 
//  400 276, 278, 280, 282, 284, 286, 288, 290, 
//  401 28, 30, 32, 34, 36, 38, 40, 42, 45, 47, 
//  402 49, 51, 53, 55, 57, 59, 61, 63, 65, 67, 
//  403 69, 71, 74, 76, 78, 80, 82, 84, 86, 88, 
//  404 90, 92, 94, 96, 98, 100, 103, 105, 107, 109, 
//  405 111, 113, 115, 117, 119, 121, 123, 125, 127, 129, 
//  406 132, 134, 136, 138, 140, 142, 144, 146, 148, 150, 
//  407 152, 154, 156, 158, 161, 163, 165, 167, 169, 171, 
//  408 173, 175, 177, 179, 181, 183, 185, 187, 190, 192, 
//  409 194, 196, 198, 200, 202, 204, 206, 208, 210, 212, 
//  410 214, 216, 219, 221, 223, 225, 227, 229, 231, 233, 
//  411 235, 237, 239, 241, 243, 245, 248, 250, 252, 254, 
//  412 256, 258, 260, 262, 264, 266, 268, 270, 272, 274, 
//  413 277, 279, 281, 283, 285, 287, 289, 291, 
//  414 28, 30, 32, 34, 36, 38, 40, 42, 45, 47, 
//  415 49, 51, 53, 55, 57, 59, 61, 63, 65, 67, 
//  416 69, 71, 74, 76, 78, 80, 82, 84, 86, 88, 
//  417 90, 92, 94, 96, 98, 100, 103, 105, 107, 109, 
//  418 111, 113, 115, 117, 119, 121, 123, 125, 127, 129, 
//  419 132, 134, 136, 138, 140, 142, 144, 146, 148, 150, 
//  420 152, 154, 156, 158, 161, 163, 165, 167, 169, 171, 
//  421 173, 175, 177, 179, 181, 183, 185, 187, 190, 192, 
//  422 194, 196, 198, 200, 202, 204, 206, 208, 210, 212, 
//  423 214, 216, 219, 221, 223, 225, 227, 229, 231, 233, 
//  424 235, 237, 239, 241, 243, 245, 248, 250, 252, 254, 
//  425 256, 258, 260, 262, 264, 266, 268, 270, 272, 274, 
//  426 277, 279, 281, 283, 285, 287, 289, 291, 
//  427 25, 27, 29, 31, 33, 36, 38, 40, 42, 44, 
//  428 46, 48, 50, 53, 55, 57, 59, 61, 63, 65, 
//  429 67, 69, 72, 74, 76, 78, 80, 82, 84, 86, 
//  430 89, 91, 93, 95, 97, 99, 101, 103, 105, 108, 
//  431 110, 112, 114, 116, 118, 120, 122, 125, 127, 129, 
//  432 131, 133, 135, 137, 139, 141, 144, 146, 148, 150, 
//  433 152, 154, 156, 158, 161, 163, 165, 167, 169, 171, 
//  434 173, 175, 178, 180, 182, 184, 186, 188, 190, 192, 
//  435 194, 197, 199, 201, 203, 205, 207, 209, 211, 214, 
//  436 216, 218, 220, 222, 224, 226, 228, 230, 233, 235, 
//  437 237, 239, 241, 243, 245, 247, 250, 252, 254, 256, 
//  438 258, 260, 262, 264, 266, 269, 271, 273, 275, 277, 
//  439 279, 281, 283, 286, 288, 290, 292, 294, 
//  440 24, 26, 28, 30, 33, 35, 37, 39, 41, 43, 
//  441 45, 47, 50, 52, 54, 56, 58, 60, 62, 65, 
//  442 67, 69, 71, 73, 75, 77, 79, 82, 84, 86, 
//  443 88, 90, 92, 94, 97, 99, 101, 103, 105, 107, 
//  444 109, 111, 114, 116, 118, 120, 122, 124, 126, 129, 
//  445 131, 133, 135, 137, 139, 141, 143, 146, 148, 150, 
//  446 152, 154, 156, 158, 161, 163, 165, 167, 169, 171, 
//  447 173, 176, 178, 180, 182, 184, 186, 188, 190, 193, 
//  448 195, 197, 199, 201, 203, 205, 208, 210, 212, 214, 
//  449 216, 218, 220, 222, 225, 227, 229, 231, 233, 235, 
//  450 237, 240, 242, 244, 246, 248, 250, 252, 254, 257, 
//  451 259, 261, 263, 265, 267, 269, 272, 274, 276, 278, 
//  452 280, 282, 284, 286, 289, 291, 293, 295, 
//  453 23, 25, 27, 29, 32, 34, 36, 38, 40, 42, 
//  454 44, 47, 49, 51, 53, 55, 57, 60, 62, 64, 
//  455 66, 68, 70, 72, 75, 77, 79, 81, 83, 85, 
//  456 87, 90, 92, 94, 96, 98, 100, 103, 105, 107, 
//  457 109, 111, 113, 115, 118, 120, 122, 124, 126, 128, 
//  458 130, 133, 135, 137, 139, 141, 143, 146, 148, 150, 
//  459 152, 154, 156, 158, 161, 163, 165, 167, 169, 171, 
//  460 173, 176, 178, 180, 182, 184, 186, 189, 191, 193, 
//  461 195, 197, 199, 201, 204, 206, 208, 210, 212, 214, 
//  462 216, 219, 221, 223, 225, 227, 229, 232, 234, 236, 
//  463 238, 240, 242, 244, 247, 249, 251, 253, 255, 257, 
//  464 259, 262, 264, 266, 268, 270, 272, 275, 277, 279, 
//  465 281, 283, 285, 287, 290, 292, 294, 296, 
//  466 23, 25, 27, 29, 32, 34, 36, 38, 40, 42, 
//  467 44, 47, 49, 51, 53, 55, 57, 60, 62, 64, 
//  468 66, 68, 70, 72, 75, 77, 79, 81, 83, 85, 
//  469 87, 90, 92, 94, 96, 98, 100, 103, 105, 107, 
//  470 109, 111, 113, 115, 118, 120, 122, 124, 126, 128, 
//  471 130, 133, 135, 137, 139, 141, 143, 146, 148, 150, 
//  472 152, 154, 156, 158, 161, 163, 165, 167, 169, 171, 
//  473 173, 176, 178, 180, 182, 184, 186, 189, 191, 193, 
//  474 195, 197, 199, 201, 204, 206, 208, 210, 212, 214, 
//  475 216, 219, 221, 223, 225, 227, 229, 232, 234, 236, 
//  476 238, 240, 242, 244, 247, 249, 251, 253, 255, 257, 
//  477 259, 262, 264, 266, 268, 270, 272, 275, 277, 279, 
//  478 281, 283, 285, 287, 290, 292, 294, 296, 
//  479 20, 22, 24, 27, 29, 31, 33, 35, 38, 40, 
//  480 42, 44, 46, 49, 51, 53, 55, 57, 60, 62, 
//  481 64, 66, 68, 71, 73, 75, 77, 79, 82, 84, 
//  482 86, 88, 90, 92, 95, 97, 99, 101, 103, 106, 
//  483 108, 110, 112, 114, 117, 119, 121, 123, 125, 128, 
//  484 130, 132, 134, 136, 139, 141, 143, 145, 147, 150, 
//  485 152, 154, 156, 158, 161, 163, 165, 167, 169, 172, 
//  486 174, 176, 178, 180, 183, 185, 187, 189, 191, 194, 
//  487 196, 198, 200, 202, 205, 207, 209, 211, 213, 216, 
//  488 218, 220, 222, 224, 227, 229, 231, 233, 235, 237, 
//  489 240, 242, 244, 246, 248, 251, 253, 255, 257, 259, 
//  490 262, 264, 266, 268, 270, 273, 275, 277, 279, 281, 
//  491 284, 286, 288, 290, 292, 295, 297, 299, 
//  492 20, 22, 24, 27, 29, 31, 33, 35, 38, 40, 
//  493 42, 44, 46, 49, 51, 53, 55, 57, 60, 62, 
//  494 64, 66, 68, 71, 73, 75, 77, 79, 82, 84, 
//  495 86, 88, 90, 92, 95, 97, 99, 101, 103, 106, 
//  496 108, 110, 112, 114, 117, 119, 121, 123, 125, 128, 
//  497 130, 132, 134, 136, 139, 141, 143, 145, 147, 150, 
//  498 152, 154, 156, 158, 161, 163, 165, 167, 169, 172, 
//  499 174, 176, 178, 180, 183, 185, 187, 189, 191, 194, 
//  500 196, 198, 200, 202, 205, 207, 209, 211, 213, 216, 
//  501 218, 220, 222, 224, 227, 229, 231, 233, 235, 237, 
//  502 240, 242, 244, 246, 248, 251, 253, 255, 257, 259, 
//  503 262, 264, 266, 268, 270, 273, 275, 277, 279, 281, 
//  504 284, 286, 288, 290, 292, 295, 297, 299, 
//  505 19, 21, 23, 26, 28, 30, 32, 34, 37, 39, 
//  506 41, 43, 46, 48, 50, 52, 54, 57, 59, 61, 
//  507 63, 65, 68, 70, 72, 74, 77, 79, 81, 83, 
//  508 85, 88, 90, 92, 94, 96, 99, 101, 103, 105, 
//  509 108, 110, 112, 114, 116, 119, 121, 123, 125, 127, 
//  510 130, 132, 134, 136, 138, 141, 143, 145, 147, 150, 
//  511 152, 154, 156, 158, 161, 163, 165, 167, 169, 172, 
//  512 174, 176, 178, 181, 183, 185, 187, 189, 192, 194, 
//  513 196, 198, 200, 203, 205, 207, 209, 211, 214, 216, 
//  514 218, 220, 223, 225, 227, 229, 231, 234, 236, 238, 
//  515 240, 242, 245, 247, 249, 251, 254, 256, 258, 260, 
//  516 262, 265, 267, 269, 271, 273, 276, 278, 280, 282, 
//  517 285, 287, 289, 291, 293, 296, 298, 300, 
//  518 19, 21, 23, 26, 28, 30, 32, 34, 37, 39, 
//  519 41, 43, 46, 48, 50, 52, 54, 57, 59, 61, 
//  520 63, 65, 68, 70, 72, 74, 77, 79, 81, 83, 
//  521 85, 88, 90, 92, 94, 96, 99, 101, 103, 105, 
//  522 108, 110, 112, 114, 116, 119, 121, 123, 125, 127, 
//  523 130, 132, 134, 136, 138, 141, 143, 145, 147, 150, 
//  524 152, 154, 156, 158, 161, 163, 165, 167, 169, 172, 
//  525 174, 176, 178, 181, 183, 185, 187, 189, 192, 194, 
//  526 196, 198, 200, 203, 205, 207, 209, 211, 214, 216, 
//  527 218, 220, 223, 225, 227, 229, 231, 234, 236, 238, 
//  528 240, 242, 245, 247, 249, 251, 254, 256, 258, 260, 
//  529 262, 265, 267, 269, 271, 273, 276, 278, 280, 282, 
//  530 285, 287, 289, 291, 293, 296, 298, 300, 
//  531 18, 20, 22, 25, 27, 29, 31, 34, 36, 38, 
//  532 40, 43, 45, 47, 49, 51, 54, 56, 58, 60, 
//  533 63, 65, 67, 69, 71, 74, 76, 78, 80, 83, 
//  534 85, 87, 89, 92, 94, 96, 98, 100, 103, 105, 
//  535 107, 109, 112, 114, 116, 118, 121, 123, 125, 127, 
//  536 129, 132, 134, 136, 138, 141, 143, 145, 147, 149, 
//  537 152, 154, 156, 158, 161, 163, 165, 167, 170, 172, 
//  538 174, 176, 178, 181, 183, 185, 187, 190, 192, 194, 
//  539 196, 198, 201, 203, 205, 207, 210, 212, 214, 216, 
//  540 219, 221, 223, 225, 227, 230, 232, 234, 236, 239, 
//  541 241, 243, 245, 248, 250, 252, 254, 256, 259, 261, 
//  542 263, 265, 268, 270, 272, 274, 276, 279, 281, 283, 
//  543 285, 288, 290, 292, 294, 297, 299, 301, 
//  544 16, 18, 21, 23, 25, 27, 30, 32, 34, 36, 
//  545 39, 41, 43, 45, 48, 50, 52, 54, 57, 59, 
//  546 61, 63, 66, 68, 70, 72, 75, 77, 79, 82, 
//  547 84, 86, 88, 91, 93, 95, 97, 100, 102, 104, 
//  548 106, 109, 111, 113, 115, 118, 120, 122, 124, 127, 
//  549 129, 131, 134, 136, 138, 140, 143, 145, 147, 149, 
//  550 152, 154, 156, 158, 161, 163, 165, 167, 170, 172, 
//  551 174, 176, 179, 181, 183, 185, 188, 190, 192, 195, 
//  552 197, 199, 201, 204, 206, 208, 210, 213, 215, 217, 
//  553 219, 222, 224, 226, 228, 231, 233, 235, 237, 240, 
//  554 242, 244, 247, 249, 251, 253, 256, 258, 260, 262, 
//  555 265, 267, 269, 271, 274, 276, 278, 280, 283, 285, 
//  556 287, 289, 292, 294, 296, 298, 301, 303, 
//  557 16, 18, 21, 23, 25, 27, 30, 32, 34, 36, 
//  558 39, 41, 43, 45, 48, 50, 52, 54, 57, 59, 
//  559 61, 63, 66, 68, 70, 72, 75, 77, 79, 82, 
//  560 84, 86, 88, 91, 93, 95, 97, 100, 102, 104, 
//  561 106, 109, 111, 113, 115, 118, 120, 122, 124, 127, 
//  562 129, 131, 134, 136, 138, 140, 143, 145, 147, 149, 
//  563 152, 154, 156, 158, 161, 163, 165, 167, 170, 172, 
//  564 174, 176, 179, 181, 183, 185, 188, 190, 192, 195, 
//  565 197, 199, 201, 204, 206, 208, 210, 213, 215, 217, 
//  566 219, 222, 224, 226, 228, 231, 233, 235, 237, 240, 
//  567 242, 244, 247, 249, 251, 253, 256, 258, 260, 262, 
//  568 265, 267, 269, 271, 274, 276, 278, 280, 283, 285, 
//  569 287, 289, 292, 294, 296, 298, 301, 303, 
//  570 15, 17, 20, 22, 24, 26, 29, 31, 33, 35, 
//  571 38, 40, 42, 45, 47, 49, 51, 54, 56, 58, 
//  572 61, 63, 65, 67, 70, 72, 74, 76, 79, 81, 
//  573 83, 86, 88, 90, 92, 95, 97, 99, 101, 104, 
//  574 106, 108, 111, 113, 115, 117, 120, 122, 124, 127, 
//  575 129, 131, 133, 136, 138, 140, 142, 145, 147, 149, 
//  576 152, 154, 156, 158, 161, 163, 165, 167, 170, 172, 
//  577 174, 177, 179, 181, 183, 186, 188, 190, 192, 195, 
//  578 197, 199, 202, 204, 206, 208, 211, 213, 215, 218, 
//  579 220, 222, 224, 227, 229, 231, 233, 236, 238, 240, 
//  580 243, 245, 247, 249, 252, 254, 256, 258, 261, 263, 
//  581 265, 268, 270, 272, 274, 277, 279, 281, 284, 286, 
//  582 288, 290, 293, 295, 297, 299, 302, 304, 
//  583 15, 17, 20, 22, 24, 26, 29, 31, 33, 35, 
//  584 38, 40, 42, 45, 47, 49, 51, 54, 56, 58, 
//  585 61, 63, 65, 67, 70, 72, 74, 76, 79, 81, 
//  586 83, 86, 88, 90, 92, 95, 97, 99, 101, 104, 
//  587 106, 108, 111, 113, 115, 117, 120, 122, 124, 127, 
//  588 129, 131, 133, 136, 138, 140, 142, 145, 147, 149, 
//  589 152, 154, 156, 158, 161, 163, 165, 167, 170, 172, 
//  590 174, 177, 179, 181, 183, 186, 188, 190, 192, 195, 
//  591 197, 199, 202, 204, 206, 208, 211, 213, 215, 218, 
//  592 220, 222, 224, 227, 229, 231, 233, 236, 238, 240, 
//  593 243, 245, 247, 249, 252, 254, 256, 258, 261, 263, 
//  594 265, 268, 270, 272, 274, 277, 279, 281, 284, 286, 
//  595 288, 290, 293, 295, 297, 299, 302, 304, 
//  596 15, 17, 20, 22, 24, 26, 29, 31, 33, 35, 
//  597 38, 40, 42, 45, 47, 49, 51, 54, 56, 58, 
//  598 61, 63, 65, 67, 70, 72, 74, 76, 79, 81, 
//  599 83, 86, 88, 90, 92, 95, 97, 99, 101, 104, 
//  600 106, 108, 111, 113, 115, 117, 120, 122, 124, 127, 
//  601 129, 131, 133, 136, 138, 140, 142, 145, 147, 149, 
//  602 152, 154, 156, 158, 161, 163, 165, 167, 170, 172, 
//  603 174, 177, 179, 181, 183, 186, 188, 190, 192, 195, 
//  604 197, 199, 202, 204, 206, 208, 211, 213, 215, 218, 
//  605 220, 222, 224, 227, 229, 231, 233, 236, 238, 240, 
//  606 243, 245, 247, 249, 252, 254, 256, 258, 261, 263, 
//  607 265, 268, 270, 272, 274, 277, 279, 281, 284, 286, 
//  608 288, 290, 293, 295, 297, 299, 302, 304, 
//  609 14, 16, 19, 21, 23, 25, 28, 30, 32, 35, 
//  610 37, 39, 41, 44, 46, 48, 51, 53, 55, 58, 
//  611 60, 62, 64, 67, 69, 71, 74, 76, 78, 80, 
//  612 83, 85, 87, 90, 92, 94, 96, 99, 101, 103, 
//  613 106, 108, 110, 113, 115, 117, 119, 122, 124, 126, 
//  614 129, 131, 133, 135, 138, 140, 142, 145, 147, 149, 
//  615 151, 154, 156, 158, 161, 163, 165, 168, 170, 172, 
//  616 174, 177, 179, 181, 184, 186, 188, 190, 193, 195, 
//  617 197, 200, 202, 204, 206, 209, 211, 213, 216, 218, 
//  618 220, 223, 225, 227, 229, 232, 234, 236, 239, 241, 
//  619 243, 245, 248, 250, 252, 255, 257, 259, 261, 264, 
//  620 266, 268, 271, 273, 275, 278, 280, 282, 284, 287, 
//  621 289, 291, 294, 296, 298, 300, 303, 305, 
//  622 13, 15, 18, 20, 22, 25, 27, 29, 31, 34, 
//  623 36, 38, 41, 43, 45, 48, 50, 52, 55, 57, 
//  624 59, 61, 64, 66, 68, 71, 73, 75, 78, 80, 
//  625 82, 85, 87, 89, 91, 94, 96, 98, 101, 103, 
//  626 105, 108, 110, 112, 115, 117, 119, 121, 124, 126, 
//  627 128, 131, 133, 135, 138, 140, 142, 145, 147, 149, 
//  628 151, 154, 156, 158, 161, 163, 165, 168, 170, 172, 
//  629 174, 177, 179, 181, 184, 186, 188, 191, 193, 195, 
//  630 198, 200, 202, 204, 207, 209, 211, 214, 216, 218, 
//  631 221, 223, 225, 228, 230, 232, 234, 237, 239, 241, 
//  632 244, 246, 248, 251, 253, 255, 258, 260, 262, 264, 
//  633 267, 269, 271, 274, 276, 278, 281, 283, 285, 288, 
//  634 290, 292, 294, 297, 299, 301, 304, 306, 
//  635 13, 15, 18, 20, 22, 25, 27, 29, 31, 34, 
//  636 36, 38, 41, 43, 45, 48, 50, 52, 55, 57, 
//  637 59, 61, 64, 66, 68, 71, 73, 75, 78, 80, 
//  638 82, 85, 87, 89, 91, 94, 96, 98, 101, 103, 
//  639 105, 108, 110, 112, 115, 117, 119, 121, 124, 126, 
//  640 128, 131, 133, 135, 138, 140, 142, 145, 147, 149, 
//  641 151, 154, 156, 158, 161, 163, 165, 168, 170, 172, 
//  642 174, 177, 179, 181, 184, 186, 188, 191, 193, 195, 
//  643 198, 200, 202, 204, 207, 209, 211, 214, 216, 218, 
//  644 221, 223, 225, 228, 230, 232, 234, 237, 239, 241, 
//  645 244, 246, 248, 251, 253, 255, 258, 260, 262, 264, 
//  646 267, 269, 271, 274, 276, 278, 281, 283, 285, 288, 
//  647 290, 292, 294, 297, 299, 301, 304, 306, 
//  648 12, 14, 17, 19, 21, 24, 26, 28, 31, 33, 
//  649 35, 38, 40, 42, 45, 47, 49, 51, 54, 56, 
//  650 58, 61, 63, 65, 68, 70, 72, 75, 77, 79, 
//  651 82, 84, 86, 89, 91, 93, 96, 98, 100, 103, 
//  652 105, 107, 110, 112, 114, 117, 119, 121, 123, 126, 
//  653 128, 130, 133, 135, 137, 140, 142, 144, 147, 149, 
//  654 151, 154, 156, 158, 161, 163, 165, 168, 170, 172, 
//  655 175, 177, 179, 182, 184, 186, 189, 191, 193, 196, 
//  656 198, 200, 202, 205, 207, 209, 212, 214, 216, 219, 
//  657 221, 223, 226, 228, 230, 233, 235, 237, 240, 242, 
//  658 244, 247, 249, 251, 254, 256, 258, 261, 263, 265, 
//  659 268, 270, 272, 274, 277, 279, 281, 284, 286, 288, 
//  660 291, 293, 295, 298, 300, 302, 305, 307, 
//  661 10, 12, 15, 17, 19, 22, 24, 26, 29, 31, 
//  662 34, 36, 38, 41, 43, 45, 48, 50, 52, 55, 
//  663 57, 59, 62, 64, 67, 69, 71, 74, 76, 78, 
//  664 81, 83, 85, 88, 90, 92, 95, 97, 99, 102, 
//  665 104, 107, 109, 111, 114, 116, 118, 121, 123, 125, 
//  666 128, 130, 132, 135, 137, 139, 142, 144, 147, 149, 
//  667 151, 154, 156, 158, 161, 163, 165, 168, 170, 172, 
//  668 175, 177, 180, 182, 184, 187, 189, 191, 194, 196, 
//  669 198, 201, 203, 205, 208, 210, 212, 215, 217, 220, 
//  670 222, 224, 227, 229, 231, 234, 236, 238, 241, 243, 
//  671 245, 248, 250, 252, 255, 257, 260, 262, 264, 267, 
//  672 269, 271, 274, 276, 278, 281, 283, 285, 288, 290, 
//  673 293, 295, 297, 300, 302, 304, 307, 309, 
//  674 9, 11, 14, 16, 18, 21, 23, 26, 28, 30, 
//  675 33, 35, 37, 40, 42, 45, 47, 49, 52, 54, 
//  676 56, 59, 61, 64, 66, 68, 71, 73, 75, 78, 
//  677 80, 82, 85, 87, 90, 92, 94, 97, 99, 101, 
//  678 104, 106, 109, 111, 113, 116, 118, 120, 123, 125, 
//  679 128, 130, 132, 135, 137, 139, 142, 144, 146, 149, 
//  680 151, 154, 156, 158, 161, 163, 165, 168, 170, 173, 
//  681 175, 177, 180, 182, 184, 187, 189, 191, 194, 196, 
//  682 199, 201, 203, 206, 208, 210, 213, 215, 218, 220, 
//  683 222, 225, 227, 229, 232, 234, 237, 239, 241, 244, 
//  684 246, 248, 251, 253, 255, 258, 260, 263, 265, 267, 
//  685 270, 272, 274, 277, 279, 282, 284, 286, 289, 291, 
//  686 293, 296, 298, 301, 303, 305, 308, 310, 
//  687 9, 11, 14, 16, 18, 21, 23, 26, 28, 30, 
//  688 33, 35, 37, 40, 42, 45, 47, 49, 52, 54, 
//  689 56, 59, 61, 64, 66, 68, 71, 73, 75, 78, 
//  690 80, 82, 85, 87, 90, 92, 94, 97, 99, 101, 
//  691 104, 106, 109, 111, 113, 116, 118, 120, 123, 125, 
//  692 128, 130, 132, 135, 137, 139, 142, 144, 146, 149, 
//  693 151, 154, 156, 158, 161, 163, 165, 168, 170, 173, 
//  694 175, 177, 180, 182, 184, 187, 189, 191, 194, 196, 
//  695 199, 201, 203, 206, 208, 210, 213, 215, 218, 220, 
//  696 222, 225, 227, 229, 232, 234, 237, 239, 241, 244, 
//  697 246, 248, 251, 253, 255, 258, 260, 263, 265, 267, 
//  698 270, 272, 274, 277, 279, 282, 284, 286, 289, 291, 
//  699 293, 296, 298, 301, 303, 305, 308, 310, 
//  700 8, 10, 13, 15, 18, 20, 22, 25, 27, 29, 
//  701 32, 34, 37, 39, 41, 44, 46, 49, 51, 53, 
//  702 56, 58, 60, 63, 65, 68, 70, 72, 75, 77, 
//  703 80, 82, 84, 87, 89, 92, 94, 96, 99, 101, 
//  704 103, 106, 108, 111, 113, 115, 118, 120, 123, 125, 
//  705 127, 130, 132, 134, 137, 139, 142, 144, 146, 149, 
//  706 151, 154, 156, 158, 161, 163, 165, 168, 170, 173, 
//  707 175, 177, 180, 182, 185, 187, 189, 192, 194, 196, 
//  708 199, 201, 204, 206, 208, 211, 213, 216, 218, 220, 
//  709 223, 225, 227, 230, 232, 235, 237, 239, 242, 244, 
//  710 247, 249, 251, 254, 256, 259, 261, 263, 266, 268, 
//  711 270, 273, 275, 278, 280, 282, 285, 287, 290, 292, 
//  712 294, 297, 299, 301, 304, 306, 309, 311, 
//  713 8, 10, 13, 15, 18, 20, 22, 25, 27, 29, 
//  714 32, 34, 37, 39, 41, 44, 46, 49, 51, 53, 
//  715 56, 58, 60, 63, 65, 68, 70, 72, 75, 77, 
//  716 80, 82, 84, 87, 89, 92, 94, 96, 99, 101, 
//  717 103, 106, 108, 111, 113, 115, 118, 120, 123, 125, 
//  718 127, 130, 132, 134, 137, 139, 142, 144, 146, 149, 
//  719 151, 154, 156, 158, 161, 163, 165, 168, 170, 173, 
//  720 175, 177, 180, 182, 185, 187, 189, 192, 194, 196, 
//  721 199, 201, 204, 206, 208, 211, 213, 216, 218, 220, 
//  722 223, 225, 227, 230, 232, 235, 237, 239, 242, 244, 
//  723 247, 249, 251, 254, 256, 259, 261, 263, 266, 268, 
//  724 270, 273, 275, 278, 280, 282, 285, 287, 290, 292, 
//  725 294, 297, 299, 301, 304, 306, 309, 311, 
//  726 8, 10, 13, 15, 18, 20, 22, 25, 27, 29, 
//  727 32, 34, 37, 39, 41, 44, 46, 49, 51, 53, 
//  728 56, 58, 60, 63, 65, 68, 70, 72, 75, 77, 
//  729 80, 82, 84, 87, 89, 92, 94, 96, 99, 101, 
//  730 103, 106, 108, 111, 113, 115, 118, 120, 123, 125, 
//  731 127, 130, 132, 134, 137, 139, 142, 144, 146, 149, 
//  732 151, 154, 156, 158, 161, 163, 165, 168, 170, 173, 
//  733 175, 177, 180, 182, 185, 187, 189, 192, 194, 196, 
//  734 199, 201, 204, 206, 208, 211, 213, 216, 218, 220, 
//  735 223, 225, 227, 230, 232, 235, 237, 239, 242, 244, 
//  736 247, 249, 251, 254, 256, 259, 261, 263, 266, 268, 
//  737 270, 273, 275, 278, 280, 282, 285, 287, 290, 292, 
//  738 294, 297, 299, 301, 304, 306, 309, 311, 
//  739 8, 10, 13, 15, 18, 20, 22, 25, 27, 29, 
//  740 32, 34, 37, 39, 41, 44, 46, 49, 51, 53, 
//  741 56, 58, 60, 63, 65, 68, 70, 72, 75, 77, 
//  742 80, 82, 84, 87, 89, 92, 94, 96, 99, 101, 
//  743 103, 106, 108, 111, 113, 115, 118, 120, 123, 125, 
//  744 127, 130, 132, 134, 137, 139, 142, 144, 146, 149, 
//  745 151, 154, 156, 158, 161, 163, 165, 168, 170, 173, 
//  746 175, 177, 180, 182, 185, 187, 189, 192, 194, 196, 
//  747 199, 201, 204, 206, 208, 211, 213, 216, 218, 220, 
//  748 223, 225, 227, 230, 232, 235, 237, 239, 242, 244, 
//  749 247, 249, 251, 254, 256, 259, 261, 263, 266, 268, 
//  750 270, 273, 275, 278, 280, 282, 285, 287, 290, 292, 
//  751 294, 297, 299, 301, 304, 306, 309, 311, 
//  752 7, 9, 12, 14, 17, 19, 21, 24, 26, 29, 
//  753 31, 33, 36, 38, 41, 43, 45, 48, 50, 53, 
//  754 55, 57, 60, 62, 65, 67, 69, 72, 74, 77, 
//  755 79, 81, 84, 86, 89, 91, 93, 96, 98, 101, 
//  756 103, 105, 108, 110, 113, 115, 117, 120, 122, 125, 
//  757 127, 129, 132, 134, 137, 139, 141, 144, 146, 149, 
//  758 151, 153, 156, 158, 161, 163, 166, 168, 170, 173, 
//  759 175, 178, 180, 182, 185, 187, 190, 192, 194, 197, 
//  760 199, 202, 204, 206, 209, 211, 214, 216, 218, 221, 
//  761 223, 226, 228, 230, 233, 235, 238, 240, 242, 245, 
//  762 247, 250, 252, 254, 257, 259, 262, 264, 266, 269, 
//  763 271, 274, 276, 278, 281, 283, 286, 288, 290, 293, 
//  764 295, 298, 300, 302, 305, 307, 310, 312, 
//  765 6, 8, 11, 13, 16, 18, 21, 23, 25, 28, 
//  766 30, 33, 35, 37, 40, 42, 45, 47, 50, 52, 
//  767 54, 57, 59, 62, 64, 66, 69, 71, 74, 76, 
//  768 79, 81, 83, 86, 88, 91, 93, 95, 98, 100, 
//  769 103, 105, 108, 110, 112, 115, 117, 120, 122, 124, 
//  770 127, 129, 132, 134, 137, 139, 141, 144, 146, 149, 
//  771 151, 153, 156, 158, 161, 163, 166, 168, 170, 173, 
//  772 175, 178, 180, 182, 185, 187, 190, 192, 195, 197, 
//  773 199, 202, 204, 207, 209, 211, 214, 216, 219, 221, 
//  774 224, 226, 228, 231, 233, 236, 238, 240, 243, 245, 
//  775 248, 250, 253, 255, 257, 260, 262, 265, 267, 269, 
//  776 272, 274, 277, 279, 282, 284, 286, 289, 291, 294, 
//  777 296, 298, 301, 303, 306, 308, 311, 313, 
//  778 4, 6, 9, 11, 14, 16, 19, 21, 24, 26, 
//  779 28, 31, 33, 36, 38, 41, 43, 46, 48, 51, 
//  780 53, 55, 58, 60, 63, 65, 68, 70, 73, 75, 
//  781 77, 80, 82, 85, 87, 90, 92, 95, 97, 100, 
//  782 102, 104, 107, 109, 112, 114, 117, 119, 122, 124, 
//  783 126, 129, 131, 134, 136, 139, 141, 144, 146, 148, 
//  784 151, 153, 156, 158, 161, 163, 166, 168, 171, 173, 
//  785 175, 178, 180, 183, 185, 188, 190, 193, 195, 197, 
//  786 200, 202, 205, 207, 210, 212, 215, 217, 219, 222, 
//  787 224, 227, 229, 232, 234, 237, 239, 242, 244, 246, 
//  788 249, 251, 254, 256, 259, 261, 264, 266, 268, 271, 
//  789 273, 276, 278, 281, 283, 286, 288, 291, 293, 295, 
//  790 298, 300, 303, 305, 308, 310, 313, 315, 
//  791 4, 6, 9, 11, 14, 16, 19, 21, 24, 26, 
//  792 28, 31, 33, 36, 38, 41, 43, 46, 48, 51, 
//  793 53, 55, 58, 60, 63, 65, 68, 70, 73, 75, 
//  794 77, 80, 82, 85, 87, 90, 92, 95, 97, 100, 
//  795 102, 104, 107, 109, 112, 114, 117, 119, 122, 124, 
//  796 126, 129, 131, 134, 136, 139, 141, 144, 146, 148, 
//  797 151, 153, 156, 158, 161, 163, 166, 168, 171, 173, 
//  798 175, 178, 180, 183, 185, 188, 190, 193, 195, 197, 
//  799 200, 202, 205, 207, 210, 212, 215, 217, 219, 222, 
//  800 224, 227, 229, 232, 234, 237, 239, 242, 244, 246, 
//  801 249, 251, 254, 256, 259, 261, 264, 266, 268, 271, 
//  802 273, 276, 278, 281, 283, 286, 288, 291, 293, 295, 
//  803 298, 300, 303, 305, 308, 310, 313, 315, 
//  804 3, 5, 8, 10, 13, 15, 18, 20, 23, 25, 
//  805 28, 30, 33, 35, 38, 40, 42, 45, 47, 50, 
//  806 52, 55, 57, 60, 62, 65, 67, 70, 72, 74, 
//  807 77, 79, 82, 84, 87, 89, 92, 94, 97, 99, 
//  808 102, 104, 107, 109, 111, 114, 116, 119, 121, 124, 
//  809 126, 129, 131, 134, 136, 139, 141, 143, 146, 148, 
//  810 151, 153, 156, 158, 161, 163, 166, 168, 171, 173, 
//  811 176, 178, 180, 183, 185, 188, 190, 193, 195, 198, 
//  812 200, 203, 205, 208, 210, 212, 215, 217, 220, 222, 
//  813 225, 227, 230, 232, 235, 237, 240, 242, 245, 247, 
//  814 249, 252, 254, 257, 259, 262, 264, 267, 269, 272, 
//  815 274, 277, 279, 281, 284, 286, 289, 291, 294, 296, 
//  816 299, 301, 304, 306, 309, 311, 314, 316, 
//  817 3, 5, 8, 10, 13, 15, 18, 20, 23, 25, 
//  818 28, 30, 33, 35, 38, 40, 42, 45, 47, 50, 
//  819 52, 55, 57, 60, 62, 65, 67, 70, 72, 74, 
//  820 77, 79, 82, 84, 87, 89, 92, 94, 97, 99, 
//  821 102, 104, 107, 109, 111, 114, 116, 119, 121, 124, 
//  822 126, 129, 131, 134, 136, 139, 141, 143, 146, 148, 
//  823 151, 153, 156, 158, 161, 163, 166, 168, 171, 173, 
//  824 176, 178, 180, 183, 185, 188, 190, 193, 195, 198, 
//  825 200, 203, 205, 208, 210, 212, 215, 217, 220, 222, 
//  826 225, 227, 230, 232, 235, 237, 240, 242, 245, 247, 
//  827 249, 252, 254, 257, 259, 262, 264, 267, 269, 272, 
//  828 274, 277, 279, 281, 284, 286, 289, 291, 294, 296, 
//  829 299, 301, 304, 306, 309, 311, 314, 316, 
//  830 3, 5, 8, 10, 13, 15, 18, 20, 23, 25, 
//  831 28, 30, 33, 35, 38, 40, 42, 45, 47, 50, 
//  832 52, 55, 57, 60, 62, 65, 67, 70, 72, 74, 
//  833 77, 79, 82, 84, 87, 89, 92, 94, 97, 99, 
//  834 102, 104, 107, 109, 111, 114, 116, 119, 121, 124, 
//  835 126, 129, 131, 134, 136, 139, 141, 143, 146, 148, 
//  836 151, 153, 156, 158, 161, 163, 166, 168, 171, 173, 
//  837 176, 178, 180, 183, 185, 188, 190, 193, 195, 198, 
//  838 200, 203, 205, 208, 210, 212, 215, 217, 220, 222, 
//  839 225, 227, 230, 232, 235, 237, 240, 242, 245, 247, 
//  840 249, 252, 254, 257, 259, 262, 264, 267, 269, 272, 
//  841 274, 277, 279, 281, 284, 286, 289, 291, 294, 296, 
//  842 299, 301, 304, 306, 309, 311, 314, 316, 
//  843 3, 5, 8, 10, 13, 15, 18, 20, 23, 25, 
//  844 28, 30, 33, 35, 38, 40, 42, 45, 47, 50, 
//  845 52, 55, 57, 60, 62, 65, 67, 70, 72, 74, 
//  846 77, 79, 82, 84, 87, 89, 92, 94, 97, 99, 
//  847 102, 104, 107, 109, 111, 114, 116, 119, 121, 124, 
//  848 126, 129, 131, 134, 136, 139, 141, 143, 146, 148, 
//  849 151, 153, 156, 158, 161, 163, 166, 168, 171, 173, 
//  850 176, 178, 180, 183, 185, 188, 190, 193, 195, 198, 
//  851 200, 203, 205, 208, 210, 212, 215, 217, 220, 222, 
//  852 225, 227, 230, 232, 235, 237, 240, 242, 245, 247, 
//  853 249, 252, 254, 257, 259, 262, 264, 267, 269, 272, 
//  854 274, 277, 279, 281, 284, 286, 289, 291, 294, 296, 
//  855 299, 301, 304, 306, 309, 311, 314, 316, 
//  856 2, 4, 7, 9, 12, 14, 17, 19, 22, 24, 
//  857 27, 29, 32, 34, 37, 39, 42, 44, 47, 49, 
//  858 52, 54, 57, 59, 62, 64, 66, 69, 71, 74, 
//  859 76, 79, 81, 84, 86, 89, 91, 94, 96, 99, 
//  860 101, 104, 106, 109, 111, 114, 116, 119, 121, 124, 
//  861 126, 128, 131, 133, 136, 138, 141, 143, 146, 148, 
//  862 151, 153, 156, 158, 161, 163, 166, 168, 171, 173, 
//  863 176, 178, 181, 183, 186, 188, 191, 193, 195, 198, 
//  864 200, 203, 205, 208, 210, 213, 215, 218, 220, 223, 
//  865 225, 228, 230, 233, 235, 238, 240, 243, 245, 248, 
//  866 250, 253, 255, 257, 260, 262, 265, 267, 270, 272, 
//  867 275, 277, 280, 282, 285, 287, 290, 292, 295, 297, 
//  868 300, 302, 305, 307, 310, 312, 315, 317, 
//  869 1, 3, 6, 8, 11, 13, 16, 18, 21, 23, 
//  870 26, 28, 31, 33, 36, 38, 41, 43, 46, 48, 
//  871 51, 53, 56, 58, 61, 63, 66, 68, 71, 73, 
//  872 76, 78, 81, 83, 86, 88, 91, 93, 96, 98, 
//  873 101, 103, 106, 108, 111, 113, 116, 118, 121, 123, 
//  874 126, 128, 131, 133, 136, 138, 141, 143, 146, 148, 
//  875 151, 153, 156, 158, 161, 163, 166, 168, 171, 173, 
//  876 176, 178, 181, 183, 186, 188, 191, 193, 196, 198, 
//  877 201, 203, 206, 208, 211, 213, 216, 218, 221, 223, 
//  878 226, 228, 231, 233, 236, 238, 241, 243, 246, 248, 
//  879 251, 253, 256, 258, 261, 263, 266, 268, 271, 273, 
//  880 276, 278, 281, 283, 286, 288, 291, 293, 296, 298, 
//  881 301, 303, 306, 308, 311, 313, 316, 318, 
//  882 1, 3, 6, 8, 11, 13, 16, 18, 21, 23, 
//  883 26, 28, 31, 33, 36, 38, 41, 43, 46, 48, 
//  884 51, 53, 56, 58, 61, 63, 66, 68, 71, 73, 
//  885 76, 78, 81, 83, 86, 88, 91, 93, 96, 98, 
//  886 101, 103, 106, 108, 111, 113, 116, 118, 121, 123, 
//  887 126, 128, 131, 133, 136, 138, 141, 143, 146, 148, 
//  888 151, 153, 156, 158, 161, 163, 166, 168, 171, 173, 
//  889 176, 178, 181, 183, 186, 188, 191, 193, 196, 198, 
//  890 201, 203, 206, 208, 211, 213, 216, 218, 221, 223, 
//  891 226, 228, 231, 233, 236, 238, 241, 243, 246, 248, 
//  892 251, 253, 256, 258, 261, 263, 266, 268, 271, 273, 
//  893 276, 278, 281, 283, 286, 288, 291, 293, 296, 298, 
//  894 301, 303, 306, 308, 311, 313, 316, 318, 
//  895 0, 3, 5, 8, 10, 13, 15, 18, 20, 23, 
//  896 25, 28, 30, 33, 35, 38, 40, 43, 45, 48, 
//  897 50, 53, 55, 58, 60, 63, 65, 68, 70, 73, 
//  898 75, 78, 80, 83, 85, 88, 90, 93, 95, 98, 
//  899 100, 103, 105, 108, 111, 113, 116, 118, 121, 123, 
//  900 126, 128, 131, 133, 136, 138, 141, 143, 146, 148, 
//  901 151, 153, 156, 158, 161, 163, 166, 168, 171, 173, 
//  902 176, 178, 181, 183, 186, 188, 191, 193, 196, 198, 
//  903 201, 203, 206, 208, 211, 214, 216, 219, 221, 224, 
//  904 226, 229, 231, 234, 236, 239, 241, 244, 246, 249, 
//  905 251, 254, 256, 259, 261, 264, 266, 269, 271, 274, 
//  906 276, 279, 281, 284, 286, 289, 291, 294, 296, 299, 
//  907 301, 304, 306, 309, 311, 314, 316, 319, 
//  908 0, 3, 5, 8, 10, 13, 15, 18, 20, 23, 
//  909 25, 28, 30, 33, 35, 38, 40, 43, 45, 48, 
//  910 50, 53, 55, 58, 60, 63, 65, 68, 70, 73, 
//  911 75, 78, 80, 83, 85, 88, 90, 93, 95, 98, 
//  912 100, 103, 105, 108, 111, 113, 116, 118, 121, 123, 
//  913 126, 128, 131, 133, 136, 138, 141, 143, 146, 148, 
//  914 151, 153, 156, 158, 161, 163, 166, 168, 171, 173, 
//  915 176, 178, 181, 183, 186, 188, 191, 193, 196, 198, 
//  916 201, 203, 206, 208, 211, 214, 216, 219, 221, 224, 
//  917 226, 229, 231, 234, 236, 239, 241, 244, 246, 249, 
//  918 251, 254, 256, 259, 261, 264, 266, 269, 271, 274, 
//  919 276, 279, 281, 284, 286, 289, 291, 294, 296, 299, 
//  920 301, 304, 306, 309, 311, 314, 316, 319, 
//  921 0, 3, 5, 8, 10, 13, 15, 18, 20, 23, 
//  922 25, 28, 30, 33, 35, 38, 40, 43, 45, 48, 
//  923 50, 53, 55, 58, 60, 63, 65, 68, 70, 73, 
//  924 75, 78, 80, 83, 85, 88, 90, 93, 95, 98, 
//  925 100, 103, 105, 108, 111, 113, 116, 118, 121, 123, 
//  926 126, 128, 131, 133, 136, 138, 141, 143, 146, 148, 
//  927 151, 153, 156, 158, 161, 163, 166, 168, 171, 173, 
//  928 176, 178, 181, 183, 186, 188, 191, 193, 196, 198, 
//  929 201, 203, 206, 208, 211, 214, 216, 219, 221, 224, 
//  930 226, 229, 231, 234, 236, 239, 241, 244, 246, 249, 
//  931 251, 254, 256, 259, 261, 264, 266, 269, 271, 274, 
//  932 276, 279, 281, 284, 286, 289, 291, 294, 296, 299, 
//  933 301, 304, 306, 309, 311, 314, 316, 319
//  934 };
//  935 

        SECTION `.bss`:DATA:REORDER:NOROOT(1)
        DATA
//  936 static uint16 sui_row_cnt = 0;
sui_row_cnt:
        DS8 2
//  937 

        SECTION `.text`:CODE:NOROOT(1)
        THUMB
//  938 void Camera_Init(void)
//  939 {   
Camera_Init:
        PUSH     {R7,LR}
//  940     Camera_GPIO_Init();
        BL       Camera_GPIO_Init
//  941     Camera_DMA_Init();  
        BL       Camera_DMA_Init
//  942 }
        POP      {R0,PC}          ;; return
//  943 

        SECTION `.text`:CODE:NOROOT(1)
        THUMB
//  944 void Camera_GPIO_Init(void)
//  945 {
Camera_GPIO_Init:
        PUSH     {R7,LR}
//  946     //OV数据口初始化
//  947     data_init.GPIO_PTx = DATA_GPIO_PORT;
        LDR.N    R0,??DataTable8_2  ;; 0x400ff0c0
        LDR.N    R1,??DataTable8_3
        STR      R0,[R1, #+0]
//  948     data_init.GPIO_Dir = DIR_INPUT;
        MOVS     R0,#+0
        LDR.N    R1,??DataTable8_3
        STRB     R0,[R1, #+12]
//  949     data_init.GPIO_Pins = DATA_PIN;
        MOVS     R0,#+255
        LDR.N    R1,??DataTable8_3
        STR      R0,[R1, #+4]
//  950     data_init.GPIO_PinControl = IRQC_DIS | INPUT_PULL_DOWN | INPUT_PF_EN;
        MOVS     R0,#+18
        LDR.N    R1,??DataTable8_3
        STR      R0,[R1, #+8]
//  951     LPLD_GPIO_Init(data_init);
        LDR.N    R1,??DataTable8_3
        SUB      SP,SP,#+16
        MOV      R0,SP
        MOVS     R2,#+20
        BL       __aeabi_memcpy4
        POP      {R0-R3}
        BL       LPLD_GPIO_Init
//  952     
//  953     //OV行信号接口初始化
//  954     h_init.GPIO_PTx = H_GPIO_PORT;
        LDR.N    R0,??DataTable8_4  ;; 0x400ff040
        LDR.N    R1,??DataTable8_5
        STR      R0,[R1, #+0]
//  955     h_init.GPIO_Dir = DIR_INPUT;
        MOVS     R0,#+0
        LDR.N    R1,??DataTable8_5
        STRB     R0,[R1, #+12]
//  956     h_init.GPIO_Pins = H_PIN;
        MOVS     R0,#+2097152
        LDR.N    R1,??DataTable8_5
        STR      R0,[R1, #+4]
//  957     h_init.GPIO_PinControl = IRQC_RI | INPUT_PULL_DOWN | INPUT_PF_EN;
        LDR.N    R0,??DataTable8_6  ;; 0x90012
        LDR.N    R1,??DataTable8_5
        STR      R0,[R1, #+8]
//  958     h_init.GPIO_Isr = Camera_H_Isr;
        ADR.W    R0,Camera_H_Isr
        LDR.N    R1,??DataTable8_5
        STR      R0,[R1, #+16]
//  959     LPLD_GPIO_Init(h_init);
        LDR.N    R1,??DataTable8_5
        SUB      SP,SP,#+16
        MOV      R0,SP
        MOVS     R2,#+20
        BL       __aeabi_memcpy4
        POP      {R0-R3}
        BL       LPLD_GPIO_Init
//  960     
//  961     //OV场信号接口初始化：
//  962     v_init.GPIO_PTx = V_GPIO_PORT;
        LDR.N    R0,??DataTable8_7  ;; 0x400ff000
        LDR.N    R1,??DataTable8_8
        STR      R0,[R1, #+0]
//  963     v_init.GPIO_Dir = DIR_INPUT;
        MOVS     R0,#+0
        LDR.N    R1,??DataTable8_8
        STRB     R0,[R1, #+12]
//  964     v_init.GPIO_Pins = V_PIN;
        MOVS     R0,#+536870912
        LDR.N    R1,??DataTable8_8
        STR      R0,[R1, #+4]
//  965     v_init.GPIO_PinControl = IRQC_RI | INPUT_PULL_DOWN | INPUT_PF_EN; 
        LDR.N    R0,??DataTable8_6  ;; 0x90012
        LDR.N    R1,??DataTable8_8
        STR      R0,[R1, #+8]
//  966     v_init.GPIO_Isr = Camera_V_Isr;
        ADR.W    R0,Camera_V_Isr
        LDR.N    R1,??DataTable8_8
        STR      R0,[R1, #+16]
//  967     LPLD_GPIO_Init(v_init); 
        LDR.N    R1,??DataTable8_8
        SUB      SP,SP,#+16
        MOV      R0,SP
        MOVS     R2,#+20
        BL       __aeabi_memcpy4
        POP      {R0-R3}
        BL       LPLD_GPIO_Init
//  968     
//  969     //OV PCLK信号接口初始化：
//  970     pclk_init.GPIO_PTx = PCLK_GPIO_PORT;
        LDR.N    R0,??DataTable8_4  ;; 0x400ff040
        LDR.N    R1,??DataTable8_9
        STR      R0,[R1, #+0]
//  971     pclk_init.GPIO_Pins = PCLK_PIN;
        MOVS     R0,#+8388608
        LDR.N    R1,??DataTable8_9
        STR      R0,[R1, #+4]
//  972     pclk_init.GPIO_Dir = DIR_INPUT;
        MOVS     R0,#+0
        LDR.N    R1,??DataTable8_9
        STRB     R0,[R1, #+12]
//  973     pclk_init.GPIO_PinControl = IRQC_DMAFA | INPUT_PULL_DOWN | INPUT_PF_EN;
        LDR.N    R0,??DataTable8_10  ;; 0x20012
        LDR.N    R1,??DataTable8_9
        STR      R0,[R1, #+8]
//  974     LPLD_GPIO_Init(pclk_init);   
        LDR.N    R1,??DataTable8_9
        SUB      SP,SP,#+16
        MOV      R0,SP
        MOVS     R2,#+20
        BL       __aeabi_memcpy4
        POP      {R0-R3}
        BL       LPLD_GPIO_Init
//  975 
//  976 }
        POP      {R0,PC}          ;; return
//  977 

        SECTION `.text`:CODE:NOROOT(1)
        THUMB
//  978 void Camera_DMA_Init(void)
//  979 {
Camera_DMA_Init:
        PUSH     {LR}
        SUB      SP,SP,#+28
//  980     static DMA_InitTypeDef dma_init_struct;      
//  981     
//  982     //DMA参数配置
//  983     dma_init_struct.DMA_CHx = CAMERA_DMA_CH;    //CH0通道
        MOVS     R0,#+0
        LDR.N    R1,??DataTable8_11
        STRB     R0,[R1, #+0]
//  984     dma_init_struct.DMA_Req = DMA_REQ;       //请求源
        MOVS     R0,#+50
        LDR.N    R1,??DataTable8_11
        STRB     R0,[R1, #+1]
//  985     dma_init_struct.DMA_MajorLoopCnt = CAMERA_ROW_DMA_NUM; //主循环计数值：行采集点数，宽度
        MOVS     R0,#+40
        LDR.N    R1,??DataTable8_11
        STRH     R0,[R1, #+4]
//  986     dma_init_struct.DMA_MinorByteCnt = 1; //次循环字节计数：每次读入1字节
        MOVS     R0,#+1
        LDR.N    R1,??DataTable8_11
        STR      R0,[R1, #+8]
//  987     dma_init_struct.DMA_SourceAddr = (uint32)&DMA_SOURCE_ADDRESS;        //源地址
        LDR.N    R0,??DataTable8_12  ;; 0x400ff0d0
        LDR.N    R1,??DataTable8_11
        STR      R0,[R1, #+12]
//  988     dma_init_struct.DMA_SourceDataSize = DMA_SRC_8BIT;
        MOVS     R0,#+0
        LDR.N    R1,??DataTable8_11
        STRB     R0,[R1, #+16]
//  989     dma_init_struct.DMA_SourceAddrOffset = 0;               //源地址每次操作后地址增加量为0
        MOVS     R0,#+0
        LDR.N    R1,??DataTable8_11
        STRH     R0,[R1, #+18]
//  990     dma_init_struct.DMA_DestDataSize = DMA_DST_8BIT;        //目的数据大小8bit
        MOVS     R0,#+0
        LDR.N    R1,??DataTable8_11
        STRB     R0,[R1, #+28]
//  991     dma_init_struct.DMA_DestAddr = (uint32)compressImage0;  //目的地址：存放图像的数组
        LDR.N    R0,??DataTable8_13
        LDR.N    R1,??DataTable8_11
        STR      R0,[R1, #+24]
//  992     dma_init_struct.DMA_DestAddrOffset = 1;       //目的地址偏移：每次读入增加1或减小1
        MOVS     R0,#+1
        LDR.N    R1,??DataTable8_11
        STRH     R0,[R1, #+30]
//  993     dma_init_struct.DMA_AutoDisableReq = TRUE;    //自动禁用请求
        MOVS     R0,#+1
        LDR.N    R1,??DataTable8_11
        STRB     R0,[R1, #+36]
//  994     dma_init_struct.DMA_PeriodicTriggerEnable = FALSE;
        MOVS     R0,#+0
        LDR.N    R1,??DataTable8_11
        STRB     R0,[R1, #+2]
//  995     //初始化DMA
//  996     LPLD_DMA_Init(dma_init_struct);
        LDR.N    R1,??DataTable8_11
        SUB      SP,SP,#+16
        MOV      R0,SP
        MOVS     R2,#+44
        BL       __aeabi_memcpy4
        POP      {R0-R3}
        BL       LPLD_DMA_Init
//  997     
//  998     LPLD_DMA_DisableReq(CAMERA_DMA_CH);
        LDR.N    R0,??DataTable8_14  ;; 0x4000800c
        LDR      R0,[R0, #+0]
        LSRS     R0,R0,#+1
        LSLS     R0,R0,#+1
        LDR.N    R1,??DataTable8_14  ;; 0x4000800c
        STR      R0,[R1, #+0]
//  999 }
        ADD      SP,SP,#+28
        POP      {PC}             ;; return

        SECTION `.bss`:DATA:REORDER:NOROOT(2)
        DATA
`Camera_DMA_Init::dma_init_struct`:
        DS8 44
// 1000 

        SECTION `.text`:CODE:NOROOT(2)
        THUMB
// 1001 void Camera_V_Isr(void)
// 1002 {  
Camera_V_Isr:
        PUSH     {R7,LR}
// 1003     if(LPLD_GPIO_IsPinxExt(V_PORT, V_PIN))
        LDR.N    R0,??DataTable8_15  ;; 0x400490a0
        LDR      R0,[R0, #+0]
        LSLS     R0,R0,#+2
        BPL.N    ??Camera_V_Isr_0
// 1004     {
// 1005         V_PORT->ISFR |= 1 <<  V_NUM;//清除场中断标志位
        LDR.N    R0,??DataTable8_15  ;; 0x400490a0
        LDR      R0,[R0, #+0]
        ORRS     R0,R0,#0x20000000
        LDR.N    R1,??DataTable8_15  ;; 0x400490a0
        STR      R0,[R1, #+0]
// 1006         
// 1007         disable_irq(V_PORT_IRQn);
        MOVS     R0,#+87
        BL       NVIC_DisableIRQ
// 1008         
// 1009         SoftIsr_Open(Reserved110_IRQn);//触发中断，该中断函数结束后立即进入图像处理
        MOVS     R0,#+94
        BL       SoftIsr_Open
// 1010 
// 1011         //检测到场开始信号，加载目的地址
// 1012         if(u8Useful_v == 0) 
        LDR.N    R0,??DataTable8_16
        LDRB     R0,[R0, #+0]
        CMP      R0,#+0
        BNE.N    ??Camera_V_Isr_1
// 1013         {
// 1014             LPLD_DMA_LoadDstAddr(CAMERA_DMA_CH, (uint32)compressImage0);
        LDR.N    R0,??DataTable8_13
        LDR.N    R1,??DataTable8_17  ;; 0x40009010
        STR      R0,[R1, #+0]
// 1015             u8Useful_v = 1;
        MOVS     R0,#+1
        LDR.N    R1,??DataTable8_16
        STRB     R0,[R1, #+0]
        B.N      ??Camera_V_Isr_2
// 1016         }
// 1017         else 
// 1018         {
// 1019             LPLD_DMA_LoadDstAddr(CAMERA_DMA_CH, (uint32)compressImage1);
??Camera_V_Isr_1:
        LDR.N    R0,??DataTable8_18
        LDR.N    R1,??DataTable8_17  ;; 0x40009010
        STR      R0,[R1, #+0]
// 1020             u8Useful_v = 0;
        MOVS     R0,#+0
        LDR.N    R1,??DataTable8_16
        STRB     R0,[R1, #+0]
// 1021         }
// 1022 
// 1023         sui_row_cnt = 0;
??Camera_V_Isr_2:
        MOVS     R0,#+0
        LDR.N    R1,??DataTable8_19
        STRH     R0,[R1, #+0]
// 1024         
// 1025         //guc_camera_image_Ok = 1;//可以显示图像
// 1026         
// 1027         enable_irq(V_PORT_IRQn);
        MOVS     R0,#+87
        BL       NVIC_EnableIRQ
// 1028     }
// 1029 }
??Camera_V_Isr_0:
        POP      {R0,PC}          ;; return
// 1030 
// 1031 
// 1032 

        SECTION `.text`:CODE:NOROOT(2)
        THUMB
// 1033 void Camera_H_Isr(void)
// 1034 {
// 1035     if(LPLD_GPIO_IsPinxExt(H_PORT, H_PIN))
Camera_H_Isr:
        LDR.N    R0,??DataTable8_20  ;; 0x4004a0a0
        LDR      R0,[R0, #+0]
        LSLS     R0,R0,#+10
        BPL.N    ??Camera_H_Isr_0
// 1036     {
// 1037         if (sui_row_cnt<240)
        LDR.N    R0,??DataTable8_19
        LDRH     R0,[R0, #+0]
        CMP      R0,#+240
        BGE.N    ??Camera_H_Isr_1
// 1038         {
// 1039             LPLD_DMA_EnableReq(CAMERA_DMA_CH);                 //使能通道CHn 硬件请求
        LDR.N    R0,??DataTable8_14  ;; 0x4000800c
        LDR      R0,[R0, #+0]
        ORRS     R0,R0,#0x1
        LDR.N    R1,??DataTable8_14  ;; 0x4000800c
        STR      R0,[R1, #+0]
// 1040         }
// 1041         
// 1042         if (sui_row_cnt == 239)
??Camera_H_Isr_1:
        LDR.N    R0,??DataTable8_19
        LDRH     R0,[R0, #+0]
        CMP      R0,#+239
        BNE.N    ??Camera_H_Isr_2
// 1043         {
// 1044             guc_camera_image_Ok = 1;//可以显示图像
        MOVS     R0,#+1
        LDR.N    R1,??DataTable8_21
        STRB     R0,[R1, #+0]
// 1045         }
// 1046         sui_row_cnt++;
??Camera_H_Isr_2:
        LDR.N    R0,??DataTable8_19
        LDRH     R0,[R0, #+0]
        ADDS     R0,R0,#+1
        LDR.N    R1,??DataTable8_19
        STRH     R0,[R1, #+0]
// 1047     } 
// 1048 }
??Camera_H_Isr_0:
        BX       LR               ;; return
// 1049 

        SECTION `.text`:CODE:NOROOT(1)
        THUMB
// 1050 void Camera_Process_Isr(void)
// 1051 {
Camera_Process_Isr:
        PUSH     {R7,LR}
// 1052         //gul_image_period = time_100us(TIMER_IMAGE_CH);
// 1053         //更新图像
// 1054         if (guc_camera_image_Ok == 1)
        LDR.N    R0,??DataTable8_21
        LDRB     R0,[R0, #+0]
        CMP      R0,#+1
        BNE.N    ??Camera_Process_Isr_0
// 1055         {                         
// 1056             //time_100us(TIMER_PROCESS_CH);
// 1057             Image_Original_Get();
        BL       Image_Original_Get
// 1058             Image_Process();
        BL       Image_Process
// 1059             //gul_image_process_time = time_100us(TIMER_PROCESS_CH);
// 1060             
// 1061             guc_camera_image_Ok = 2;
        MOVS     R0,#+2
        LDR.N    R1,??DataTable8_21
        STRB     R0,[R1, #+0]
// 1062         }
// 1063 }
??Camera_Process_Isr_0:
        POP      {R0,PC}          ;; return
// 1064 

        SECTION `.text`:CODE:NOROOT(1)
        THUMB
// 1065 void Image_Original_Get()       //2.1ms
// 1066 {
Image_Original_Get:
        PUSH     {R7,LR}
// 1067 
// 1068     if (u8Useful_v == 0)
        LDR.N    R0,??DataTable8_16
        LDRB     R0,[R0, #+0]
        CMP      R0,#+0
        BNE.N    ??Image_Original_Get_0
// 1069     {
// 1070         //解压   
// 1071         //img_extract_for_64x(&extractedImage_64x[64 * CAMERA_W - 1], (uint8 (*)[CAMERA_ROW_DMA_NUM])compressImage0);
// 1072         
// 1073         img_extract_for_64x(extractedImage_64x, (uint8 (*)[CAMERA_ROW_DMA_NUM])compressImage0);
        LDR.N    R1,??DataTable8_13
        LDR.N    R0,??DataTable8_22
        BL       img_extract_for_64x
        B.N      ??Image_Original_Get_1
// 1074     }
// 1075     else
// 1076     {
// 1077         //img_extract_for_64x(&extractedImage_64x[64 * CAMERA_W - 1], (uint8 (*)[CAMERA_ROW_DMA_NUM])compressImage1);
// 1078         
// 1079         img_extract_for_64x(extractedImage_64x, (uint8 (*)[CAMERA_ROW_DMA_NUM])compressImage1);          
??Image_Original_Get_0:
        LDR.N    R1,??DataTable8_18
        LDR.N    R0,??DataTable8_22
        BL       img_extract_for_64x
// 1080     }    
// 1081     img_rowcol_128X64(guc_corrected_image,(uint8 (*)[CAMERA_W])extractedImage_64x);
??Image_Original_Get_1:
        LDR.N    R1,??DataTable8_22
        LDR.N    R0,??DataTable8_23
        BL       img_rowcol_128X64
// 1082 
// 1083     
// 1084     //guc_image_source = (uint8 (*)[CAMERA_W])extractedImage_64x;
// 1085 }
        POP      {R0,PC}          ;; return
// 1086 
// 1087 /*===============================================================
// 1088 	@brief      二值化图像解压
// 1089 	@function   解压图像的同时，将行均匀提取，取出320*64的二值图像数组
// 1090         @parameter1 图像解压目的地址
// 1091         @parameter2 图像解压源地址
// 1092         @note       方法有多种，也可解压和提取分开进行，找出用时最少的方法
// 1093 ==================================================================*/
// 1094 

        SECTION `.text`:CODE:NOROOT(1)
        THUMB
// 1095 void img_extract_for_64x(uint8 *dst, uint8 (*src)[CAMERA_ROW_DMA_NUM])          //1.0ms
// 1096 {
img_extract_for_64x:
        PUSH     {R4-R6}
        MOVS     R2,R0
// 1097     //注：山外的摄像头 0 表示 白色，1表示 黑色
// 1098     register uint8 tmpsrc;
// 1099     register uint8 *tmpsrc_Row;
// 1100     register uint8 i, j; 
// 1101     
// 1102     for (i=0; i<64; i++)
        MOVS     R3,#+0
        B.N      ??img_extract_for_64x_0
// 1103     {
// 1104         //tmpsrc_Row = src[(((uint32)i*CAMERA_H)/IMAGE_HEIGHT)];
// 1105       
// 1106         tmpsrc_Row = src[g_row[i]]; 
// 1107         for (j=0; j<CAMERA_ROW_DMA_NUM; j++)
// 1108         {
// 1109             tmpsrc = ~(*tmpsrc_Row);            //为了程序执行效率考虑
??img_extract_for_64x_1:
        LDRB     R0,[R5, #+0]
        MVNS     R6,R0
// 1110             tmpsrc_Row++;                       //使用指针代替数组寻址运算
        ADDS     R5,R5,#+1
// 1111             *dst++ = ((tmpsrc >> 7 ) & 0x01);
        MOVS     R0,R6
        UXTB     R0,R0            ;; ZeroExt  R0,R0,#+24,#+24
        LSRS     R0,R0,#+7
        STRB     R0,[R2, #+0]
        ADDS     R2,R2,#+1
// 1112             *dst++ = ((tmpsrc >> 6 ) & 0x01);
        UBFX     R0,R6,#+6,#+1
        STRB     R0,[R2, #+0]
        ADDS     R2,R2,#+1
// 1113             *dst++ = ((tmpsrc >> 5 ) & 0x01);
        UBFX     R0,R6,#+5,#+1
        STRB     R0,[R2, #+0]
        ADDS     R2,R2,#+1
// 1114             *dst++ = ((tmpsrc >> 4 ) & 0x01);
        UBFX     R0,R6,#+4,#+1
        STRB     R0,[R2, #+0]
        ADDS     R2,R2,#+1
// 1115             *dst++ = ((tmpsrc >> 3 ) & 0x01);
        UBFX     R0,R6,#+3,#+1
        STRB     R0,[R2, #+0]
        ADDS     R2,R2,#+1
// 1116             *dst++ = ((tmpsrc >> 2 ) & 0x01);
        UBFX     R0,R6,#+2,#+1
        STRB     R0,[R2, #+0]
        ADDS     R2,R2,#+1
// 1117             *dst++ = ((tmpsrc >> 1 ) & 0x01);
        UBFX     R0,R6,#+1,#+1
        STRB     R0,[R2, #+0]
        ADDS     R2,R2,#+1
// 1118             *dst++ = ((tmpsrc >> 0 ) & 0x01); 
        ANDS     R0,R6,#0x1
        STRB     R0,[R2, #+0]
        ADDS     R2,R2,#+1
// 1119             
// 1120 //            *dst++ = ((tmpsrc >> 1 ) & 0x01);
// 1121 //            *dst++ = ((tmpsrc >> 0 ) & 0x01);
// 1122 //            *dst++ = ((tmpsrc >> 3 ) & 0x01);
// 1123 //            *dst++ = ((tmpsrc >> 2 ) & 0x01);
// 1124 //            *dst++ = ((tmpsrc >> 5 ) & 0x01);
// 1125 //            *dst++ = ((tmpsrc >> 4 ) & 0x01);
// 1126 //            *dst++ = ((tmpsrc >> 7 ) & 0x01);
// 1127 //            *dst++ = ((tmpsrc >> 6 ) & 0x01); 
// 1128         }
        ADDS     R4,R4,#+1
??img_extract_for_64x_2:
        UXTB     R4,R4            ;; ZeroExt  R4,R4,#+24,#+24
        CMP      R4,#+40
        BLT.N    ??img_extract_for_64x_1
        ADDS     R3,R3,#+1
??img_extract_for_64x_0:
        UXTB     R3,R3            ;; ZeroExt  R3,R3,#+24,#+24
        CMP      R3,#+64
        BGE.N    ??img_extract_for_64x_3
        LDR.N    R0,??DataTable8_24
        UXTB     R3,R3            ;; ZeroExt  R3,R3,#+24,#+24
        LDRH     R0,[R0, R3, LSL #+1]
        MOVS     R4,#+40
        MULS     R0,R4,R0
        ADD      R5,R1,R0
        MOVS     R4,#+0
        B.N      ??img_extract_for_64x_2
// 1129     }
// 1130 }
??img_extract_for_64x_3:
        POP      {R4-R6}
        BX       LR               ;; return

        SECTION `.text`:CODE:NOROOT(2)
        SECTION_TYPE SHT_PROGBITS, 0
        DATA
??DataTable8:
        DC32     0xe000e100

        SECTION `.text`:CODE:NOROOT(2)
        SECTION_TYPE SHT_PROGBITS, 0
        DATA
??DataTable8_1:
        DC32     0xe000e180

        SECTION `.text`:CODE:NOROOT(2)
        SECTION_TYPE SHT_PROGBITS, 0
        DATA
??DataTable8_2:
        DC32     0x400ff0c0

        SECTION `.text`:CODE:NOROOT(2)
        SECTION_TYPE SHT_PROGBITS, 0
        DATA
??DataTable8_3:
        DC32     data_init

        SECTION `.text`:CODE:NOROOT(2)
        SECTION_TYPE SHT_PROGBITS, 0
        DATA
??DataTable8_4:
        DC32     0x400ff040

        SECTION `.text`:CODE:NOROOT(2)
        SECTION_TYPE SHT_PROGBITS, 0
        DATA
??DataTable8_5:
        DC32     h_init

        SECTION `.text`:CODE:NOROOT(2)
        SECTION_TYPE SHT_PROGBITS, 0
        DATA
??DataTable8_6:
        DC32     0x90012

        SECTION `.text`:CODE:NOROOT(2)
        SECTION_TYPE SHT_PROGBITS, 0
        DATA
??DataTable8_7:
        DC32     0x400ff000

        SECTION `.text`:CODE:NOROOT(2)
        SECTION_TYPE SHT_PROGBITS, 0
        DATA
??DataTable8_8:
        DC32     v_init

        SECTION `.text`:CODE:NOROOT(2)
        SECTION_TYPE SHT_PROGBITS, 0
        DATA
??DataTable8_9:
        DC32     pclk_init

        SECTION `.text`:CODE:NOROOT(2)
        SECTION_TYPE SHT_PROGBITS, 0
        DATA
??DataTable8_10:
        DC32     0x20012

        SECTION `.text`:CODE:NOROOT(2)
        SECTION_TYPE SHT_PROGBITS, 0
        DATA
??DataTable8_11:
        DC32     `Camera_DMA_Init::dma_init_struct`

        SECTION `.text`:CODE:NOROOT(2)
        SECTION_TYPE SHT_PROGBITS, 0
        DATA
??DataTable8_12:
        DC32     0x400ff0d0

        SECTION `.text`:CODE:NOROOT(2)
        SECTION_TYPE SHT_PROGBITS, 0
        DATA
??DataTable8_13:
        DC32     compressImage0

        SECTION `.text`:CODE:NOROOT(2)
        SECTION_TYPE SHT_PROGBITS, 0
        DATA
??DataTable8_14:
        DC32     0x4000800c

        SECTION `.text`:CODE:NOROOT(2)
        SECTION_TYPE SHT_PROGBITS, 0
        DATA
??DataTable8_15:
        DC32     0x400490a0

        SECTION `.text`:CODE:NOROOT(2)
        SECTION_TYPE SHT_PROGBITS, 0
        DATA
??DataTable8_16:
        DC32     u8Useful_v

        SECTION `.text`:CODE:NOROOT(2)
        SECTION_TYPE SHT_PROGBITS, 0
        DATA
??DataTable8_17:
        DC32     0x40009010

        SECTION `.text`:CODE:NOROOT(2)
        SECTION_TYPE SHT_PROGBITS, 0
        DATA
??DataTable8_18:
        DC32     compressImage1

        SECTION `.text`:CODE:NOROOT(2)
        SECTION_TYPE SHT_PROGBITS, 0
        DATA
??DataTable8_19:
        DC32     sui_row_cnt

        SECTION `.text`:CODE:NOROOT(2)
        SECTION_TYPE SHT_PROGBITS, 0
        DATA
??DataTable8_20:
        DC32     0x4004a0a0

        SECTION `.text`:CODE:NOROOT(2)
        SECTION_TYPE SHT_PROGBITS, 0
        DATA
??DataTable8_21:
        DC32     guc_camera_image_Ok

        SECTION `.text`:CODE:NOROOT(2)
        SECTION_TYPE SHT_PROGBITS, 0
        DATA
??DataTable8_22:
        DC32     extractedImage_64x

        SECTION `.text`:CODE:NOROOT(2)
        SECTION_TYPE SHT_PROGBITS, 0
        DATA
??DataTable8_23:
        DC32     guc_corrected_image

        SECTION `.text`:CODE:NOROOT(2)
        SECTION_TYPE SHT_PROGBITS, 0
        DATA
??DataTable8_24:
        DC32     g_row
// 1131 
// 1132 /*===============================================================
// 1133 	@brief      数组提取
// 1134 	@function   进行列提取，320取出128列
// 1135         @parameter1 图像目的地址
// 1136         @parameter2 图像源地址
// 1137         @note       方法有多种，也可解压和提取分开进行，找出用时最少的方法
// 1138 ==================================================================*/
// 1139 

        SECTION `.text`:CODE:NOROOT(1)
        THUMB
// 1140 void img_rowcol_128X64(uint8 dst[IMAGE_HEIGHT][IMAGE_WIDTH], uint8 (*src)[CAMERA_W])    
// 1141 {
img_rowcol_128X64:
        PUSH     {R4-R6}
// 1142     register uint8 *tmpdst = (uint8*)dst;
        MOVS     R2,R0
// 1143     register uint8 *tmpsrc = src[0];
        MOVS     R3,R1
// 1144     register uint8 i = 0, j = 0;
        MOVS     R4,#+0
        MOVS     R5,#+0
// 1145     for(i = 0; i < IMAGE_HEIGHT ;i++)
        MOVS     R4,#+0
        B.N      ??img_rowcol_128X64_0
// 1146     {
// 1147         tmpsrc = src[i];
// 1148         //tmpdst = dst[i];
// 1149         tmpdst = dst[i];
// 1150         for(j = 0; j < IMAGE_WIDTH;j++)
// 1151         {
// 1152            *tmpdst = tmpsrc[(((uint32)j*CAMERA_W)/IMAGE_WIDTH)]; //不取列
??img_rowcol_128X64_1:
        UXTB     R5,R5            ;; ZeroExt  R5,R5,#+24,#+24
        MOV      R6,#+320
        MUL      R6,R6,R5
        LSRS     R6,R6,#+7
        LDRB     R6,[R3, R6]
        STRB     R6,[R2, #+0]
// 1153            // *tmpdst = tmpsrc[g_RowCol[i][IMAGE_WIDTH-1-j]];
// 1154           //dst[IMAGE_HEIGHT-1-i][j] = src[i][g_RowCol[i][j]];//2.5ms
// 1155             tmpdst++;                                   //使用指针代替数组寻址运算
        ADDS     R2,R2,#+1
// 1156         }
        ADDS     R5,R5,#+1
??img_rowcol_128X64_2:
        UXTB     R5,R5            ;; ZeroExt  R5,R5,#+24,#+24
        CMP      R5,#+128
        BLT.N    ??img_rowcol_128X64_1
        ADDS     R4,R4,#+1
??img_rowcol_128X64_0:
        UXTB     R4,R4            ;; ZeroExt  R4,R4,#+24,#+24
        CMP      R4,#+64
        BGE.N    ??img_rowcol_128X64_3
        UXTB     R4,R4            ;; ZeroExt  R4,R4,#+24,#+24
        MOV      R2,#+320
        MUL      R2,R2,R4
        ADD      R3,R1,R2
        UXTB     R4,R4            ;; ZeroExt  R4,R4,#+24,#+24
        MOVS     R2,#+128
        MUL      R2,R2,R4
        ADD      R2,R0,R2
        MOVS     R5,#+0
        B.N      ??img_rowcol_128X64_2
// 1157     }
// 1158 }
??img_rowcol_128X64_3:
        POP      {R4-R6}
        BX       LR               ;; return
// 1159 

        SECTION `.text`:CODE:NOROOT(1)
        THUMB
// 1160 void Reserved110_IRQHandler()
// 1161 {
Reserved110_IRQHandler:
        PUSH     {R7,LR}
// 1162    Camera_Process_Isr();
        BL       Camera_Process_Isr
// 1163 }
        POP      {R0,PC}          ;; return

        SECTION `.iar_vfe_header`:DATA:NOALLOC:NOROOT(2)
        SECTION_TYPE SHT_PROGBITS, 0
        DATA
        DC32 0

        SECTION __DLIB_PERTHREAD:DATA:REORDER:NOROOT(0)
        SECTION_TYPE SHT_PROGBITS, 0

        SECTION __DLIB_PERTHREAD_init:DATA:REORDER:NOROOT(0)
        SECTION_TYPE SHT_PROGBITS, 0

        END
// 1164 
// 1165 ///*
// 1166 //函数参数:  dst:目的地址
// 1167 //           src:源地址
// 1168 //           size:解压的字节数
// 1169 //函数功能: 将源地址的图像解压为0,1，图像字节数必须是4的倍数！！！
// 1170 //函数时间：2.3~2.4ms
// 1171 //函数已优化
// 1172 //*/
// 1173 //void ImgExtract(uint8 *src, uint8 *dst, uint32 size)
// 1174 //{
// 1175 //    register uint8 src_tmp;
// 1176 //    size = size - (size % 4); //取四的倍数
// 1177 //    
// 1178 //    while(size)
// 1179 //    {
// 1180 //        src_tmp = ~(*src);
// 1181 //        *dst = (src_tmp >> 7 ) & 0x01;
// 1182 //        *(dst + 1 ) = (src_tmp >> 6 ) & 0x01;
// 1183 //        *(dst + 2 ) = (src_tmp >> 5 ) & 0x01;
// 1184 //        *(dst + 3 ) = (src_tmp >> 4 ) & 0x01;
// 1185 //        *(dst + 4 ) = (src_tmp >> 3 ) & 0x01;
// 1186 //        *(dst + 5 ) = (src_tmp >> 2 ) & 0x01;
// 1187 //        *(dst + 6 ) = (src_tmp >> 1 ) & 0x01;
// 1188 //        *(dst + 7 ) = (src_tmp >> 0 ) & 0x01;
// 1189 //        
// 1190 //        src_tmp = ~(*(src + 1));
// 1191 //        *(dst + 8 ) = (src_tmp >> 7 ) & 0x01;
// 1192 //        *(dst + 9 ) = (src_tmp >> 6 ) & 0x01;
// 1193 //        *(dst + 10 ) = (src_tmp >> 5 ) & 0x01;
// 1194 //        *(dst + 11 ) = (src_tmp >> 4 ) & 0x01;
// 1195 //        *(dst + 12 ) = (src_tmp >> 3 ) & 0x01;
// 1196 //        *(dst + 13 ) = (src_tmp >> 2 ) & 0x01;
// 1197 //        *(dst + 14 ) = (src_tmp >> 1 ) & 0x01;
// 1198 //        *(dst + 15 ) = (src_tmp >> 0 ) & 0x01;//2个字节
// 1199 //        
// 1200 //        src_tmp = ~(*(src + 2));
// 1201 //        *(dst + 16) = (src_tmp >> 7 ) & 0x01; 
// 1202 //        *(dst + 17) = (src_tmp >> 6 ) & 0x01;
// 1203 //        *(dst + 18) = (src_tmp >> 5 ) & 0x01;
// 1204 //        *(dst + 19) = (src_tmp >> 4 ) & 0x01;
// 1205 //        *(dst + 20) = (src_tmp >> 3 ) & 0x01;
// 1206 //        *(dst + 21) = (src_tmp >> 2 ) & 0x01;
// 1207 //        *(dst + 22) = (src_tmp >> 1 ) & 0x01;
// 1208 //        *(dst + 23) = (src_tmp >> 0 ) & 0x01;
// 1209 //        
// 1210 //        src_tmp = ~(*(src + 3));
// 1211 //        *(dst + 24) = (src_tmp >> 7 ) & 0x01;
// 1212 //        *(dst + 25) = (src_tmp >> 6 ) & 0x01;
// 1213 //        *(dst + 26) = (src_tmp >> 5 ) & 0x01;
// 1214 //        *(dst + 27) = (src_tmp >> 4 ) & 0x01;
// 1215 //        *(dst + 28) = (src_tmp >> 3 ) & 0x01;
// 1216 //        *(dst + 29) = (src_tmp >> 2 ) & 0x01;
// 1217 //        *(dst + 30) = (src_tmp >> 1 ) & 0x01;
// 1218 //        *(dst + 31) = (src_tmp >> 0 ) & 0x01;//4个字节
// 1219 //        
// 1220 //        src += 4;
// 1221 //        dst += 32;
// 1222 //        size -= 4;
// 1223 //    }
// 1224 //}
// 1225 //
// 1226 ///*
// 1227 //图像压缩为128行64列（利用提取数组）
// 1228 //函数参数:  image:目的地址
// 1229 //           src:解压后的源地址
// 1230 //函数时间：1.7~1.8ms
// 1231 //注意：图像的宽度必须为4的倍数！！！
// 1232 //*/
// 1233 //void ImgCompress_128x64(uint8 *src, uint8 (*image)[IMAGE_WIDTH])
// 1234 //{
// 1235 //   register uint16 i, j;
// 1236 //   const uint8 *p = NULL;//位置指针
// 1237 //   
// 1238 //   for (i = 0; i < IMAGE_HEIGHT; i++)//图像上下左右颠倒
// 1239 //   {
// 1240 //      p = src + g_row[i] * CAMERA_W;//位置指针移动
// 1241 //      for (j = 0; j < IMAGE_WIDTH; j += 4)//为程序效率考虑，内循环适当展开
// 1242 //      {
// 1243 //         image[i][j] = *(p + g_RowCol[i][j]);
// 1244 //         image[i][j + 1] = *(p + g_RowCol[i][j + 1]);
// 1245 //         image[i][j + 2] = *(p + g_RowCol[i][j + 2]);
// 1246 //         image[i][j + 3] = *(p + g_RowCol[i][j + 3]);
// 1247 //      }
// 1248 //   }
// 1249 //}
// 
// 116 607 bytes in section .bss
//  16 512 bytes in section .data
//     866 bytes in section .text
// 
//     866 bytes of CODE memory
// 133 119 bytes of DATA memory
//
//Errors: none
//Warnings: none
